

Microchip MPLAB XC8 Assembler V2.40 build 20220703182018 
                                                                                               Sat Jul 23 12:37:59 2022

Microchip MPLAB XC8 C Compiler v2.40 (Pro license) build 20220703182018 Og9f 
     1                           	processor	18LF46K22
     2                           	fnconf	rparam,??,?,0
     3                           	pagewidth 120
     4                           	opt	plic
     5                           	psect	idataCOMRAM,global,class=CODE,delta=1,noexec
     6                           	psect	mediumconst,global,reloc=2,class=MEDIUMCONST,delta=1,noexec
     7                           	psect	cinit,global,reloc=2,class=CODE,delta=1
     8                           	psect	bssCOMRAM,global,class=COMRAM,space=1,delta=1,lowdata,noexec
     9                           	psect	dataCOMRAM,global,class=COMRAM,space=1,delta=1,lowdata,noexec
    10                           	psect	bssBANK0,global,class=BANK0,space=1,delta=1,lowdata,noexec
    11                           	psect	bssBANK1,global,class=BANK1,space=1,delta=1,lowdata,noexec
    12                           	psect	bssBANK2,global,class=BANK2,space=1,delta=1,lowdata,noexec
    13                           	psect	bssBANK3,global,class=BANK3,space=1,delta=1,lowdata,noexec
    14                           	psect	bssBIGRAM,global,class=BIGRAM,space=1,delta=1,noexec
    15                           	psect	cstackCOMRAM,global,class=COMRAM,space=1,delta=1,lowdata,noexec
    16                           	psect	text0,global,reloc=2,class=CODE,delta=1
    17                           	psect	text1,global,reloc=2,class=CODE,delta=1
    18                           	psect	text2,global,reloc=2,class=CODE,delta=1
    19                           	psect	text3,global,reloc=2,class=CODE,delta=1
    20                           	psect	text4,global,reloc=2,class=CODE,delta=1
    21                           	psect	intcode,global,reloc=2,class=CODE,delta=1
    22                           	psect	text6,global,reloc=2,class=CODE,delta=1
    23                           	psect	text7,global,reloc=2,class=CODE,delta=1
    24                           	psect	text8,global,reloc=2,class=CODE,delta=1
    25                           	psect	text9,global,reloc=2,class=CODE,delta=1
    26                           	psect	text10,global,reloc=2,class=CODE,delta=1
    27                           	psect	text11,global,reloc=2,class=CODE,delta=1
    28                           	psect	text12,global,reloc=2,class=CODE,delta=1
    29                           	psect	text13,global,reloc=2,class=CODE,delta=1
    30                           	psect	text14,global,reloc=2,class=CODE,delta=1
    31                           	psect	text15,global,reloc=2,class=CODE,delta=1
    32                           	psect	intsave_regs,global,class=BIGRAM,space=1,delta=1,noexec
    33                           	psect	rparam,global,class=COMRAM,space=1,delta=1,noexec
    34                           	psect	temp,global,ovrld,common,class=COMRAM,space=1,delta=1
    35                           	psect	idloc,global,abs,ovrld,class=IDLOC,space=5,delta=1,noexec
    36                           	psect	config,global,abs,ovrld,class=CONFIG,space=4,delta=1,noexec
    37   000000                     
    38                           ; Version 2.40
    39                           ; Generated 04/07/2022 GMT
    40                           ; 
    41                           ; Copyright © 2022, Microchip Technology Inc. and its subsidiaries ("Microchip")
    42                           ; All rights reserved.
    43                           ; 
    44                           ; This software is developed by Microchip Technology Inc. and its subsidiaries ("Microch
      +                          ip").
    45                           ; 
    46                           ; Redistribution and use in source and binary forms, with or without modification, are
    47                           ; permitted provided that the following conditions are met:
    48                           ; 
    49                           ;     1. Redistributions of source code must retain the above copyright notice, this lis
      +                          t of
    50                           ;        conditions and the following disclaimer.
    51                           ; 
    52                           ;     2. Redistributions in binary form must reproduce the above copyright notice, this 
      +                          list
    53                           ;        of conditions and the following disclaimer in the documentation and/or other
    54                           ;        materials provided with the distribution. Publication is not required when
    55                           ;        this file is used in an embedded application.
    56                           ; 
    57                           ;     3. Microchip's name may not be used to endorse or promote products derived from th
      +                          is
    58                           ;        software without specific prior written permission.
    59                           ; 
    60                           ; THIS SOFTWARE IS PROVIDED BY MICROCHIP "AS IS" AND ANY EXPRESS OR IMPLIED WARRANTIES,
    61                           ; INCLUDING, BUT NOT LIMITED TO, THE IMPLIED WARRANTIES OF MERCHANTABILITY AND FITNESS F
      +                          OR
    62                           ; PURPOSE ARE DISCLAIMED.  IN NO EVENT SHALL MICROCHIP BE LIABLE FOR ANY DIRECT, INDIREC
      +                          T,
    63                           ; INCIDENTAL, SPECIAL, EXEMPLARY, OR CONSEQUENTIAL DAMAGES (INCLUDING BUT NOT LIMITED TO
    64                           ; PROCUREMENT OF SUBSTITUTE GOODS OR SERVICES; LOSS OF USE, DATA OR PROFITS; OR BUSINESS
    65                           ; INTERRUPTION) HOWSOEVER CAUSED AND ON ANY THEORY OF LIABILITY, WHETHER IN CONTRACT, ST
      +                          RICT
    66                           ; LIABILITY, OR TORT (INCLUDING NEGLIGENCE OR OTHERWISE) ARISING IN ANY WAY OUT OF THE U
      +                          SE OF
    67                           ; THIS SOFTWARE, EVEN IF ADVISED OF THE POSSIBILITY OF SUCH DAMAGE.
    68                           ; 
    69                           ; 
    70                           ; Code-generator required, PIC18LF46K22 Definitions
    71                           ; 
    72                           ; SFR Addresses
    73   000000                     
    74 ;; Function _INT1_DefaultInterruptHandler is unused but had its address taken
    75   000000                     
    76 ;; Function _INT2_DefaultInterruptHandler is unused but had its address taken
    77   000000                     
    78 ;; Function _INT0_DefaultInterruptHandler is unused but had its address taken
    79   000000                     
    80 ;; Function _TMR_ISR_lora is unused but had its address taken
    81   000000                     
    82 ;; Function _RADIO_RxFSKTimeout is unused but had its address taken
    83   000000                     
    84 ;; Function _RADIO_WatchdogTimeout is unused but had its address taken
    85   000000                     
    86 ;; Function _DutyCycleCallback is unused but had its address taken
    87   000000                     
    88 ;; Function _TMR1_DefaultInterruptHandler is unused but had its address taken
    89   000000                     
    90 ;; Function _TMR3_DefaultInterruptHandler is unused but had its address taken
    91   000000                     
    92 ;; Function _IOCB4_DefaultInterruptHandler is unused but had its address taken
    93   000000                     
    94 ;; Function _LORAWAN_ReceiveWindow1Callback is unused but had its address taken
    95   000000                     
    96 ;; Function _LORAWAN_ReceiveWindow2Callback is unused but had its address taken
    97   000000                     
    98 ;; Function _LORAWAN_LinkCheckCallback is unused but had its address taken
    99   000000                     
   100 ;; Function _AckRetransmissionCallback is unused but had its address taken
   101   000000                     
   102 ;; Function _UnconfirmedTransmissionCallback is unused but had its address taken
   103   000000                     
   104 ;; Function _AutomaticReplyCallback is unused but had its address taken
   105   000000                     
   106 ;; Function _UpdateJoinSuccessState is unused but had its address taken
   107   000000                     
   108 ;; Function _DIO0_ISR_Lora is unused but had its address taken
   109   000000                     
   110 ;; Function _DIO1_ISR_Lora is unused but had its address taken
   111   000000                     
   112 ;; Function _DIO2_ISR_Lora is unused but had its address taken
   113   000000                     
   114 ;; Function _DIO5_ISR_Lora is unused but had its address taken
   115   000000                     
   116                           	psect	idataCOMRAM
   117   0001E4                     __pidataCOMRAM:
   118                           	callstack 0
   119                           
   120                           ;initializer for _ticksToScheduledInterrupt
   121   0001E4  FFFF               	dw	65535
   122   0001E6  FFFF               	dw	65535
   123                           
   124                           	psect	mediumconst
   125   00FFA6                     __pmediumconst:
   126                           	callstack 0
   127   00FFA6  00                 	db	0
   128   00FFA7  B9D8               	dw	47576
   129   00FFA9  19D1               	dw	6609
   130   00FFAB  01                 	db	1
   131   00FFAC  50                 	db	80
   132   00FFAD  012E               	dw	302
   133   00FFAF  0000               	dw	0
   134   00FFB1  0000               	dw	0
   135   00FFB3  01                 	db	1
   136   00FFB4  FF                 	db	255
   137   00FFB5  C718               	dw	50968
   138   00FFB7  19D4               	dw	6612
   139   00FFB9  01                 	db	1
   140   00FFBA  50                 	db	80
   141   00FFBB  012E               	dw	302
   142   00FFBD  0000               	dw	0
   143   00FFBF  0000               	dw	0
   144   00FFC1  01                 	db	1
   145   00FFC2  FF                 	db	255
   146   00FFC3  D458               	dw	54360
   147   00FFC5  19D7               	dw	6615
   148   00FFC7  01                 	db	1
   149   00FFC8  50                 	db	80
   150   00FFC9  012E               	dw	302
   151   00FFCB  0000               	dw	0
   152   00FFCD  0000               	dw	0
   153   00FFCF  01                 	db	1
   154   00FFD0  FF                 	db	255
   155   00FFD1                     __end_of_DefaultChannels433:
   156                           	callstack 0
   157   00FFD1  27A0               	dw	10144
   158   00FFD3  33BE               	dw	13246
   159   00FFD5  01                 	db	1
   160   00FFD6  50                 	db	80
   161   00FFD7  012E               	dw	302
   162   00FFD9  0000               	dw	0
   163   00FFDB  0000               	dw	0
   164   00FFDD  01                 	db	1
   165   00FFDE  FF                 	db	255
   166   00FFDF  34E0               	dw	13536
   167   00FFE1  33C1               	dw	13249
   168   00FFE3  01                 	db	1
   169   00FFE4  50                 	db	80
   170   00FFE5  012E               	dw	302
   171   00FFE7  0000               	dw	0
   172   00FFE9  0000               	dw	0
   173   00FFEB  01                 	db	1
   174   00FFEC  FF                 	db	255
   175   00FFED  4220               	dw	16928
   176   00FFEF  33C4               	dw	13252
   177   00FFF1  01                 	db	1
   178   00FFF2  50                 	db	80
   179   00FFF3  012E               	dw	302
   180   00FFF5  0000               	dw	0
   181   00FFF7  0000               	dw	0
   182   00FFF9  01                 	db	1
   183   00FFFA  FF                 	db	255
   184   00FFFB                     __end_of_DefaultChannels868:
   185                           	callstack 0
   186   00FFFB  C1                 	db	193
   187   00FFFC  94                 	db	148
   188   00FFFD  C1                 	db	193
   189   00FFFE                     __end_of_FskSyncWordBuff:
   190                           	callstack 0
   191   000000                     _PORTCbits	set	3970
   192   000000                     _PORTDbits	set	3971
   193   000000                     _ANSELA	set	3896
   194   000000                     _ANSELB	set	3897
   195   000000                     _ANSELC	set	3898
   196   000000                     _TRISD	set	3989
   197   000000                     _TRISB	set	3987
   198   000000                     _TRISE	set	3990
   199   000000                     _LATB	set	3978
   200   000000                     _LATA	set	3977
   201   000000                     _TMR3L	set	4018
   202   000000                     _TMR3H	set	4019
   203   000000                     _T3GCON	set	4020
   204   000000                     _TMR1L	set	4046
   205   000000                     _TMR1H	set	4047
   206   000000                     _SSP2CON1	set	3948
   207   000000                     _SSP2STAT	set	3949
   208   000000                     _INTCON2bits	set	4081
   209   000000                     _INTCONbits	set	4082
   210   000000                     _INTCON3bits	set	4080
   211   000000                     _ANSELDbits	set	3899
   212   000000                     _ANSELCbits	set	3898
   213   000000                     _ADCON2bits	set	4032
   214   000000                     _TRISDbits	set	3989
   215   000000                     _TRISCbits	set	3988
   216   000000                     _ADCON0bits	set	4034
   217   000000                     _PORTBbits	set	3969
   218   000000                     _OSCTUNE	set	3995
   219   000000                     _OSCCON2	set	4050
   220   000000                     _OSCCON	set	4051
   221   000000                     _SSP2BUF	set	3951
   222   000000                     _SSP2ADD	set	3950
   223   000000                     _LATC2	set	31834
   224   000000                     _TRISC2	set	31906
   225   000000                     _PIE1bits	set	3997
   226   000000                     _PIR1bits	set	3998
   227   000000                     _T1GCON	set	4044
   228   000000                     _T1CON	set	4045
   229   000000                     _TRISA	set	3986
   230   000000                     _LATE	set	3981
   231   000000                     _LATD3	set	31843
   232   000000                     _RCONbits	set	4048
   233   000000                     _PIE2bits	set	4000
   234   000000                     _PIR2bits	set	4001
   235   000000                     _T3CON	set	4017
   236   000000                     _ADCON2	set	4032
   237   000000                     _ADCON1	set	4033
   238   000000                     _ADCON0	set	4034
   239   000000                     _WPUB	set	3937
   240   000000                     _ANSELE	set	3900
   241   000000                     _ANSELD	set	3899
   242   000000                     _IOCBbits	set	3938
   243   000000                     _ADRESH	set	4036
   244   000000                     _ADRESL	set	4035
   245   00FFFE  00                 	db	0	; dummy byte at the end
   246   000000                     
   247                           ; #config settings
   248                           
   249                           	psect	cinit
   250   0000E2                     __pcinit:
   251                           	callstack 0
   252   0000E2                     start_initialization:
   253                           	callstack 0
   254   0000E2                     __initialization:
   255                           	callstack 0
   256                           
   257                           ; Initialize objects allocated to COMRAM (4 bytes)
   258                           ; load TBLPTR registers with __pidataCOMRAM
   259   0000E2  0EE4               	movlw	low __pidataCOMRAM
   260   0000E4  6EF6               	movwf	tblptrl,c
   261   0000E6  0E01               	movlw	high __pidataCOMRAM
   262   0000E8  6EF7               	movwf	tblptrh,c
   263   0000EA  0E00               	movlw	low (__pidataCOMRAM shr (0+16))
   264   0000EC  6EF8               	movwf	tblptru,c
   265   0000EE  EE00  F049         	lfsr	0,__pdataCOMRAM
   266   0000F2  EE20 F004          	lfsr	2,4
   267   0000F6                     copy_data0:
   268   0000F6  0009               	tblrd		*+
   269   0000F8  CFF5 FFEE          	movff	tablat,postinc0
   270   0000FC  50DD               	movf	postdec2,w,c
   271   0000FE  50D9               	movf	fsr2l,w,c
   272   000100  E1FA               	bnz	copy_data0
   273                           
   274                           ; Clear objects allocated to BIGRAM (542 bytes)
   275   000102  EE03  F0E0         	lfsr	0,__pbssBIGRAM
   276   000106  EE22 F01E          	lfsr	2,542
   277   00010A                     clear_0:
   278   00010A  6AEE               	clrf	postinc0,c
   279   00010C  50DD               	movf	postdec2,w,c
   280   00010E  50D9               	movf	fsr2l,w,c
   281   000110  E1FC               	bnz	clear_0
   282   000112  50DA               	movf	fsr2h,w,c
   283   000114  E1FA               	bnz	clear_0
   284                           
   285                           ; Clear objects allocated to BANK3 (224 bytes)
   286   000116  EE03  F000         	lfsr	0,__pbssBANK3
   287   00011A  0EE0               	movlw	224
   288   00011C                     clear_1:
   289   00011C  6AEE               	clrf	postinc0,c
   290   00011E  06E8               	decf	wreg,f,c
   291   000120  E1FD               	bnz	clear_1
   292                           
   293                           ; Clear objects allocated to BANK2 (245 bytes)
   294   000122  EE02  F000         	lfsr	0,__pbssBANK2
   295   000126  0EF5               	movlw	245
   296   000128                     clear_2:
   297   000128  6AEE               	clrf	postinc0,c
   298   00012A  06E8               	decf	wreg,f,c
   299   00012C  E1FD               	bnz	clear_2
   300                           
   301                           ; Clear objects allocated to BANK1 (160 bytes)
   302   00012E  EE01  F000         	lfsr	0,__pbssBANK1
   303   000132  0EA0               	movlw	160
   304   000134                     clear_3:
   305   000134  6AEE               	clrf	postinc0,c
   306   000136  06E8               	decf	wreg,f,c
   307   000138  E1FD               	bnz	clear_3
   308                           
   309                           ; Clear objects allocated to BANK0 (54 bytes)
   310   00013A  EE00  F060         	lfsr	0,__pbssBANK0
   311   00013E  0E36               	movlw	54
   312   000140                     clear_4:
   313   000140  6AEE               	clrf	postinc0,c
   314   000142  06E8               	decf	wreg,f,c
   315   000144  E1FD               	bnz	clear_4
   316                           
   317                           ; Clear objects allocated to COMRAM (45 bytes)
   318   000146  EE00  F001         	lfsr	0,__pbssCOMRAM
   319   00014A  0E2D               	movlw	45
   320   00014C                     clear_5:
   321   00014C  6AEE               	clrf	postinc0,c
   322   00014E  06E8               	decf	wreg,f,c
   323   000150  E1FD               	bnz	clear_5
   324   000152                     end_of_initialization:
   325                           	callstack 0
   326   000152                     __end_of__initialization:
   327                           	callstack 0
   328   000152  0100               	movlb	0
   329   000154  EF34  F000         	goto	_main	;jump to C main() function
   330                           
   331                           	psect	bssCOMRAM
   332   000001                     __pbssCOMRAM:
   333                           	callstack 0
   334   000001                     _ticksAccounted:
   335                           	callstack 0
   336   000001                     	ds	4
   337   000005                     _ticksAdded:
   338                           	callstack 0
   339   000005                     	ds	4
   340   000009                     _light:
   341                           	callstack 0
   342   000009                     	ds	2
   343   00000B                     _IOCB4_InterruptHandler:
   344                           	callstack 0
   345   00000B                     	ds	2
   346   00000D                     _TMR3_InterruptHandler:
   347                           	callstack 0
   348   00000D                     	ds	2
   349   00000F                     _timer3ReloadVal:
   350                           	callstack 0
   351   00000F                     	ds	2
   352   000011                     _TMR1_InterruptHandler:
   353                           	callstack 0
   354   000011                     	ds	2
   355   000013                     _timer1ReloadVal:
   356                           	callstack 0
   357   000013                     	ds	2
   358   000015                     _reloadVal:
   359                           	callstack 0
   360   000015                     	ds	2
   361   000017                     _INT2_InterruptHandler:
   362                           	callstack 0
   363   000017                     	ds	2
   364   000019                     _INT1_InterruptHandler:
   365                           	callstack 0
   366   000019                     	ds	2
   367   00001B                     _allocatedTimers:
   368                           	callstack 0
   369   00001B                     	ds	1
   370   00001C                     _dioStatus:
   371                           	callstack 0
   372   00001C                     	ds	1
   373   00001D                     _timerOverflow:
   374                           	callstack 0
   375   00001D                     	ds	1
   376   00001E                     	ds	16
   377                           
   378                           	psect	dataCOMRAM
   379   000049                     __pdataCOMRAM:
   380                           	callstack 0
   381   000049                     _ticksToScheduledInterrupt:
   382                           	callstack 0
   383   000049                     	ds	4
   384                           
   385                           	psect	bssBANK0
   386   000060                     __pbssBANK0:
   387                           	callstack 0
   388   000060                     	ds	54
   389                           
   390                           	psect	bssBANK1
   391   000100                     __pbssBANK1:
   392                           	callstack 0
   393   000100                     _swTimers:
   394                           	callstack 0
   395   000100                     	ds	160
   396                           
   397                           	psect	bssBANK2
   398   000200                     __pbssBANK2:
   399                           	callstack 0
   400   000200                     _loRa:
   401                           	callstack 0
   402   000200                     	ds	245
   403                           
   404                           	psect	bssBANK3
   405   000300                     __pbssBANK3:
   406                           	callstack 0
   407   000300                     _Channels:
   408                           	callstack 0
   409   000300                     	ds	224
   410                           
   411                           	psect	bssBIGRAM
   412   0003E0                     __pbssBIGRAM:
   413                           	callstack 0
   414   0003E0                     _macBuffer:
   415                           	callstack 0
   416   0003E0                     	ds	271
   417   0004EF                     _radioBuffer:
   418                           	callstack 0
   419   0004EF                     	ds	271
   420                           
   421                           	psect	cstackCOMRAM
   422   00002E                     __pcstackCOMRAM:
   423                           	callstack 0
   424   00002E                     ??_INTERRUPT_InterruptManager:
   425   00002E                     
   426                           ; 1 bytes @ 0x0
   427   00002E                     	ds	2
   428   000030                     ??_ADC_SelChannel:
   429                           
   430                           ; 1 bytes @ 0x2
   431   000030                     	ds	1
   432   000031                     ADC_SelChannel@c:
   433                           	callstack 0
   434                           
   435                           ; 1 bytes @ 0x3
   436   000031                     	ds	1
   437   000032                     ?_ADC_Read:
   438                           	callstack 0
   439                           
   440                           ; 2 bytes @ 0x4
   441   000032                     	ds	2
   442   000034                     ??_ADC_Read:
   443                           
   444                           ; 1 bytes @ 0x6
   445   000034                     	ds	2
   446   000036                     ADC_Read@channel:
   447                           	callstack 0
   448                           
   449                           ; 1 bytes @ 0x8
   450   000036                     	ds	1
   451   000037                     ADC_Read@result:
   452                           	callstack 0
   453                           
   454                           ; 2 bytes @ 0x9
   455   000037                     	ds	2
   456   000039                     ??_main:
   457                           
   458                           ; 1 bytes @ 0xB
   459   000039                     	ds	2
   460   00003B                     main@time:
   461                           	callstack 0
   462                           
   463                           ; 2 bytes @ 0xD
   464   00003B                     	ds	2
   465                           
   466 ;;
   467 ;;Main: autosize = 0, tempsize = 2, incstack = 0, save=0
   468 ;;
   469 ;; *************** function _main *****************
   470 ;; Defined at:
   471 ;;		line 38 in file "main.c"
   472 ;; Parameters:    Size  Location     Type
   473 ;;		None
   474 ;; Auto vars:     Size  Location     Type
   475 ;;  time            2   13[COMRAM] unsigned int 
   476 ;; Return value:  Size  Location     Type
   477 ;;                  1    wreg      void 
   478 ;; Registers used:
   479 ;;		wreg, status,2, status,0, cstack
   480 ;; Tracked objects:
   481 ;;		On entry : 0/0
   482 ;;		On exit  : 0/0
   483 ;;		Unchanged: 0/0
   484 ;; Data sizes:     COMRAM   BANK0   BANK1   BANK2   BANK3   BANK4   BANK5   BANK6   BANK7   BANK8   BANK9  BANK10  BANK1
      +1  BANK12  BANK13  BANK14  BANK15
   485 ;;      Params:         0       0       0       0       0       0       0       0       0       0       0       0       
      +0       0       0       0       0
   486 ;;      Locals:         2       0       0       0       0       0       0       0       0       0       0       0       
      +0       0       0       0       0
   487 ;;      Temps:          2       0       0       0       0       0       0       0       0       0       0       0       
      +0       0       0       0       0
   488 ;;      Totals:         4       0       0       0       0       0       0       0       0       0       0       0       
      +0       0       0       0       0
   489 ;;Total ram usage:        4 bytes
   490 ;; Hardware stack levels required when called: 5
   491 ;; This function calls:
   492 ;;		_ADC_Read
   493 ;;		_ADC_init
   494 ;;		_IO_pins_init
   495 ;; This function is called by:
   496 ;;		Startup code after reset
   497 ;; This function uses a non-reentrant model
   498 ;;
   499                           
   500                           	psect	text0
   501   000068                     __ptext0:
   502                           	callstack 0
   503   000068                     _main:
   504                           	callstack 26
   505                           
   506                           ;main.c: 39: IO_pins_init();
   507                           
   508                           ;incstack = 0
   509   000068  ECD0  F000         	call	_IO_pins_init	;wreg free
   510                           
   511                           ; BSR set to: 15
   512                           ;main.c: 40: ADC_init();
   513   00006C  ECDA  F000         	call	_ADC_init	;wreg free
   514   000070                     l3590:
   515                           
   516                           ;main.c: 43: PORTDbits.RD5 = 1;
   517   000070  8A83               	bsf	131,5,c	;volatile
   518                           
   519                           ;main.c: 44: _delay((unsigned long)((1000)*(16000000/4000.0)));
   520   000072  0E15               	movlw	21
   521   000074  6E3A               	movwf	(??_main+1)^0,c
   522   000076  0E4B               	movlw	75
   523   000078  6E39               	movwf	??_main^0,c
   524   00007A  0EBE               	movlw	190
   525   00007C                     u187:
   526   00007C  2EE8               	decfsz	wreg,f,c
   527   00007E  D7FE               	bra	u187
   528   000080  2E39               	decfsz	??_main^0,f,c
   529   000082  D7FC               	bra	u187
   530   000084  2E3A               	decfsz	(??_main+1)^0,f,c
   531   000086  D7FA               	bra	u187
   532   000088  D000               	nop2	
   533                           
   534                           ;main.c: 45: PORTDbits.RD5 = 0;
   535   00008A  9A83               	bcf	131,5,c	;volatile
   536                           
   537                           ;main.c: 46: _delay((unsigned long)((1000)*(16000000/4000.0)));
   538   00008C  0E15               	movlw	21
   539   00008E  6E3A               	movwf	(??_main+1)^0,c
   540   000090  0E4B               	movlw	75
   541   000092  6E39               	movwf	??_main^0,c
   542   000094  0EBE               	movlw	190
   543   000096                     u197:
   544   000096  2EE8               	decfsz	wreg,f,c
   545   000098  D7FE               	bra	u197
   546   00009A  2E39               	decfsz	??_main^0,f,c
   547   00009C  D7FC               	bra	u197
   548   00009E  2E3A               	decfsz	(??_main+1)^0,f,c
   549   0000A0  D7FA               	bra	u197
   550   0000A2  D000               	nop2	
   551                           
   552                           ;main.c: 48: temp = ADC_Read(27);
   553   0000A4  0E1B               	movlw	27
   554   0000A6  ECAC  F000         	call	_ADC_Read
   555                           
   556                           ;main.c: 49: light = ADC_Read(26);
   557   0000AA  0E1A               	movlw	26
   558   0000AC  ECAC  F000         	call	_ADC_Read
   559   0000B0  C032  F009         	movff	?_ADC_Read,_light
   560   0000B4  C033  F00A         	movff	?_ADC_Read+1,_light+1
   561                           
   562                           ;main.c: 52: PORTCbits.RC5 = 1;
   563   0000B8  8A82               	bsf	130,5,c	;volatile
   564                           
   565                           ;main.c: 53: for (uint16_t time = 0; time < light; time++){
   566   0000BA  6A3B               	clrf	main@time^0,c
   567   0000BC  6A3C               	clrf	(main@time+1)^0,c
   568   0000BE  D00A               	goto	l2670
   569   0000C0                     l3606:
   570                           
   571                           ;main.c: 54: _delay((unsigned long)((1)*(16000000/4000.0)));
   572   0000C0  0E06               	movlw	6
   573   0000C2  6E39               	movwf	??_main^0,c
   574   0000C4  0E30               	movlw	48
   575   0000C6                     u207:
   576   0000C6  2EE8               	decfsz	wreg,f,c
   577   0000C8  D7FE               	bra	u207
   578   0000CA  2E39               	decfsz	??_main^0,f,c
   579   0000CC  D7FC               	bra	u207
   580   0000CE  D000               	nop2	
   581   0000D0  4A3B               	infsnz	main@time^0,f,c
   582   0000D2  2A3C               	incf	(main@time+1)^0,f,c
   583   0000D4                     l2670:
   584   0000D4  5009               	movf	_light^0,w,c
   585   0000D6  5C3B               	subwf	main@time^0,w,c
   586   0000D8  500A               	movf	(_light+1)^0,w,c
   587   0000DA  583C               	subwfb	(main@time+1)^0,w,c
   588   0000DC  E3F1               	bnc	l3606
   589                           
   590                           ;main.c: 55: };main.c: 56: PORTCbits.RC5 = 0;
   591   0000DE  9A82               	bcf	130,5,c	;volatile
   592   0000E0  D7C7               	goto	l3590
   593   0000E2                     __end_of_main:
   594                           	callstack 0
   595                           
   596 ;; *************** function _IO_pins_init *****************
   597 ;; Defined at:
   598 ;;		line 60 in file "main.c"
   599 ;; Parameters:    Size  Location     Type
   600 ;;		None
   601 ;; Auto vars:     Size  Location     Type
   602 ;;		None
   603 ;; Return value:  Size  Location     Type
   604 ;;                  1    wreg      void 
   605 ;; Registers used:
   606 ;;		None
   607 ;; Tracked objects:
   608 ;;		On entry : 0/0
   609 ;;		On exit  : 3F/F
   610 ;;		Unchanged: 0/0
   611 ;; Data sizes:     COMRAM   BANK0   BANK1   BANK2   BANK3   BANK4   BANK5   BANK6   BANK7   BANK8   BANK9  BANK10  BANK1
      +1  BANK12  BANK13  BANK14  BANK15
   612 ;;      Params:         0       0       0       0       0       0       0       0       0       0       0       0       
      +0       0       0       0       0
   613 ;;      Locals:         0       0       0       0       0       0       0       0       0       0       0       0       
      +0       0       0       0       0
   614 ;;      Temps:          0       0       0       0       0       0       0       0       0       0       0       0       
      +0       0       0       0       0
   615 ;;      Totals:         0       0       0       0       0       0       0       0       0       0       0       0       
      +0       0       0       0       0
   616 ;;Total ram usage:        0 bytes
   617 ;; Hardware stack levels used: 1
   618 ;; Hardware stack levels required when called: 3
   619 ;; This function calls:
   620 ;;		Nothing
   621 ;; This function is called by:
   622 ;;		_main
   623 ;; This function uses a non-reentrant model
   624 ;;
   625                           
   626                           	psect	text1
   627   0001A0                     __ptext1:
   628                           	callstack 0
   629   0001A0                     _IO_pins_init:
   630                           	callstack 27
   631                           
   632                           ;main.c: 62: TRISCbits.TRISC5 = 0;
   633                           
   634                           ;incstack = 0
   635   0001A0  9A94               	bcf	148,5,c	;volatile
   636                           
   637                           ;main.c: 63: TRISDbits.TRISD5 = 0;
   638   0001A2  9A95               	bcf	149,5,c	;volatile
   639                           
   640                           ;main.c: 64: TRISDbits.TRISD6 = 1;
   641   0001A4  8C95               	bsf	149,6,c	;volatile
   642                           
   643                           ;main.c: 65: TRISDbits.TRISD7 = 1;
   644   0001A6  8E95               	bsf	149,7,c	;volatile
   645                           
   646                           ;main.c: 67: ANSELCbits.ANSC5 = 0;
   647   0001A8  010F               	movlb	15	; () banked
   648   0001AA  9B3A               	bcf	58,5,b	;volatile
   649                           
   650                           ;main.c: 68: ANSELDbits.ANSD5 = 0;
   651   0001AC  9B3B               	bcf	59,5,b	;volatile
   652                           
   653                           ;main.c: 69: ANSELDbits.ANSD6 = 1;
   654   0001AE  8D3B               	bsf	59,6,b	;volatile
   655                           
   656                           ;main.c: 70: ANSELDbits.ANSD7 = 1;
   657   0001B0  8F3B               	bsf	59,7,b	;volatile
   658                           
   659                           ; BSR set to: 15
   660   0001B2  0012               	return		;funcret
   661   0001B4                     __end_of_IO_pins_init:
   662                           	callstack 0
   663                           
   664 ;; *************** function _ADC_init *****************
   665 ;; Defined at:
   666 ;;		line 73 in file "main.c"
   667 ;; Parameters:    Size  Location     Type
   668 ;;		None
   669 ;; Auto vars:     Size  Location     Type
   670 ;;		None
   671 ;; Return value:  Size  Location     Type
   672 ;;                  1    wreg      void 
   673 ;; Registers used:
   674 ;;		wreg, status,2
   675 ;; Tracked objects:
   676 ;;		On entry : 3F/F
   677 ;;		On exit  : 3F/F
   678 ;;		Unchanged: 3E/0
   679 ;; Data sizes:     COMRAM   BANK0   BANK1   BANK2   BANK3   BANK4   BANK5   BANK6   BANK7   BANK8   BANK9  BANK10  BANK1
      +1  BANK12  BANK13  BANK14  BANK15
   680 ;;      Params:         0       0       0       0       0       0       0       0       0       0       0       0       
      +0       0       0       0       0
   681 ;;      Locals:         0       0       0       0       0       0       0       0       0       0       0       0       
      +0       0       0       0       0
   682 ;;      Temps:          0       0       0       0       0       0       0       0       0       0       0       0       
      +0       0       0       0       0
   683 ;;      Totals:         0       0       0       0       0       0       0       0       0       0       0       0       
      +0       0       0       0       0
   684 ;;Total ram usage:        0 bytes
   685 ;; Hardware stack levels used: 1
   686 ;; Hardware stack levels required when called: 3
   687 ;; This function calls:
   688 ;;		Nothing
   689 ;; This function is called by:
   690 ;;		_main
   691 ;; This function uses a non-reentrant model
   692 ;;
   693                           
   694                           	psect	text2
   695   0001B4                     __ptext2:
   696                           	callstack 0
   697   0001B4                     _ADC_init:
   698                           	callstack 27
   699                           
   700                           ; BSR set to: 15
   701                           ;main.c: 74: ADCON0bits.GO = 0;
   702                           
   703                           ; BSR set to: 15
   704                           ;incstack = 0
   705   0001B4  92C2               	bcf	194,1,c	;volatile
   706                           
   707                           ;main.c: 75: ADCON2bits.ADFM = 1;
   708   0001B6  8EC0               	bsf	192,7,c	;volatile
   709                           
   710                           ; BSR set to: 15
   711                           ;main.c: 76: ADCON2bits.ADCS = 3;
   712   0001B8  50C0               	movf	192,w,c	;volatile
   713   0001BA  0BF8               	andlw	-8
   714   0001BC  0903               	iorlw	3
   715   0001BE  6EC0               	movwf	192,c	;volatile
   716                           
   717                           ; BSR set to: 15
   718   0001C0  0012               	return		;funcret
   719   0001C2                     __end_of_ADC_init:
   720                           	callstack 0
   721                           
   722 ;; *************** function _ADC_Read *****************
   723 ;; Defined at:
   724 ;;		line 85 in file "main.c"
   725 ;; Parameters:    Size  Location     Type
   726 ;;  channel         1    wreg     unsigned char 
   727 ;; Auto vars:     Size  Location     Type
   728 ;;  channel         1    8[COMRAM] unsigned char 
   729 ;;  result          2    9[COMRAM] unsigned int 
   730 ;; Return value:  Size  Location     Type
   731 ;;                  2    4[COMRAM] unsigned int 
   732 ;; Registers used:
   733 ;;		wreg, status,2, status,0, cstack
   734 ;; Tracked objects:
   735 ;;		On entry : 0/F
   736 ;;		On exit  : 0/0
   737 ;;		Unchanged: 0/0
   738 ;; Data sizes:     COMRAM   BANK0   BANK1   BANK2   BANK3   BANK4   BANK5   BANK6   BANK7   BANK8   BANK9  BANK10  BANK1
      +1  BANK12  BANK13  BANK14  BANK15
   739 ;;      Params:         2       0       0       0       0       0       0       0       0       0       0       0       
      +0       0       0       0       0
   740 ;;      Locals:         3       0       0       0       0       0       0       0       0       0       0       0       
      +0       0       0       0       0
   741 ;;      Temps:          2       0       0       0       0       0       0       0       0       0       0       0       
      +0       0       0       0       0
   742 ;;      Totals:         7       0       0       0       0       0       0       0       0       0       0       0       
      +0       0       0       0       0
   743 ;;Total ram usage:        7 bytes
   744 ;; Hardware stack levels used: 1
   745 ;; Hardware stack levels required when called: 4
   746 ;; This function calls:
   747 ;;		_ADC_SelChannel
   748 ;; This function is called by:
   749 ;;		_main
   750 ;; This function uses a non-reentrant model
   751 ;;
   752                           
   753                           	psect	text3
   754   000158                     __ptext3:
   755                           	callstack 0
   756   000158                     _ADC_Read:
   757                           	callstack 26
   758                           
   759                           ; BSR set to: 15
   760                           ;incstack = 0
   761                           ;ADC_Read@channel stored from wreg
   762   000158  6E36               	movwf	ADC_Read@channel^0,c
   763                           
   764                           ;main.c: 87: ADCON0bits.ADON = 1;
   765   00015A  80C2               	bsf	194,0,c	;volatile
   766                           
   767                           ;main.c: 88: ADC_SelChannel(channel);
   768   00015C  5036               	movf	ADC_Read@channel^0,w,c
   769   00015E  ECC5  F000         	call	_ADC_SelChannel
   770                           
   771                           ;main.c: 89: ADCON0bits.GO = 1;
   772   000162  82C2               	bsf	194,1,c	;volatile
   773   000164                     l2687:
   774   000164  B2C2               	btfsc	194,1,c	;volatile
   775   000166  D7FE               	goto	l2687
   776                           
   777                           ;main.c: 91: result = (ADRESH<<8) | ADRESL;
   778   000168  50C3               	movf	195,w,c	;volatile
   779   00016A  CFC4 F034          	movff	4036,??_ADC_Read	;volatile
   780   00016E  6A35               	clrf	(??_ADC_Read+1)^0,c
   781   000170  C034  F035         	movff	??_ADC_Read,??_ADC_Read+1
   782   000174  6A34               	clrf	??_ADC_Read^0,c
   783   000176  1034               	iorwf	??_ADC_Read^0,w,c
   784   000178  6E37               	movwf	ADC_Read@result^0,c
   785   00017A  5035               	movf	(??_ADC_Read+1)^0,w,c
   786   00017C  6E38               	movwf	(ADC_Read@result+1)^0,c
   787                           
   788                           ;main.c: 92: ADCON0bits.ADON = 0;
   789   00017E  90C2               	bcf	194,0,c	;volatile
   790                           
   791                           ;main.c: 93: return result;
   792   000180  C037  F032         	movff	ADC_Read@result,?_ADC_Read
   793   000184  C038  F033         	movff	ADC_Read@result+1,?_ADC_Read+1
   794   000188  0012               	return		;funcret
   795   00018A                     __end_of_ADC_Read:
   796                           	callstack 0
   797                           
   798 ;; *************** function _ADC_SelChannel *****************
   799 ;; Defined at:
   800 ;;		line 80 in file "main.c"
   801 ;; Parameters:    Size  Location     Type
   802 ;;  c               1    wreg     unsigned char 
   803 ;; Auto vars:     Size  Location     Type
   804 ;;  c               1    3[COMRAM] unsigned char 
   805 ;; Return value:  Size  Location     Type
   806 ;;                  1    wreg      void 
   807 ;; Registers used:
   808 ;;		wreg, status,2, status,0
   809 ;; Tracked objects:
   810 ;;		On entry : 0/F
   811 ;;		On exit  : 0/0
   812 ;;		Unchanged: 0/0
   813 ;; Data sizes:     COMRAM   BANK0   BANK1   BANK2   BANK3   BANK4   BANK5   BANK6   BANK7   BANK8   BANK9  BANK10  BANK1
      +1  BANK12  BANK13  BANK14  BANK15
   814 ;;      Params:         0       0       0       0       0       0       0       0       0       0       0       0       
      +0       0       0       0       0
   815 ;;      Locals:         1       0       0       0       0       0       0       0       0       0       0       0       
      +0       0       0       0       0
   816 ;;      Temps:          1       0       0       0       0       0       0       0       0       0       0       0       
      +0       0       0       0       0
   817 ;;      Totals:         2       0       0       0       0       0       0       0       0       0       0       0       
      +0       0       0       0       0
   818 ;;Total ram usage:        2 bytes
   819 ;; Hardware stack levels used: 1
   820 ;; Hardware stack levels required when called: 3
   821 ;; This function calls:
   822 ;;		Nothing
   823 ;; This function is called by:
   824 ;;		_ADC_Read
   825 ;; This function uses a non-reentrant model
   826 ;;
   827                           
   828                           	psect	text4
   829   00018A                     __ptext4:
   830                           	callstack 0
   831   00018A                     _ADC_SelChannel:
   832                           	callstack 26
   833                           
   834                           ;incstack = 0
   835                           ;ADC_SelChannel@c stored from wreg
   836   00018A  6E31               	movwf	ADC_SelChannel@c^0,c
   837                           
   838                           ;main.c: 81: ADCON0bits.CHS = c;
   839   00018C  C031  F030         	movff	ADC_SelChannel@c,??_ADC_SelChannel
   840   000190  4630               	rlncf	??_ADC_SelChannel^0,f,c
   841   000192  4630               	rlncf	??_ADC_SelChannel^0,f,c
   842   000194  50C2               	movf	194,w,c	;volatile
   843   000196  1830               	xorwf	??_ADC_SelChannel^0,w,c
   844   000198  0B83               	andlw	-125
   845   00019A  1830               	xorwf	??_ADC_SelChannel^0,w,c
   846   00019C  6EC2               	movwf	194,c	;volatile
   847   00019E  0012               	return		;funcret
   848   0001A0                     __end_of_ADC_SelChannel:
   849                           	callstack 0
   850                           
   851 ;; *************** function _INTERRUPT_InterruptManager *****************
   852 ;; Defined at:
   853 ;;		line 57 in file "mcc_generated_files/interrupt_manager.c"
   854 ;; Parameters:    Size  Location     Type
   855 ;;		None
   856 ;; Auto vars:     Size  Location     Type
   857 ;;		None
   858 ;; Return value:  Size  Location     Type
   859 ;;                  1    wreg      void 
   860 ;; Registers used:
   861 ;;		wreg, status,2, status,0, cstack
   862 ;; Tracked objects:
   863 ;;		On entry : 0/0
   864 ;;		On exit  : 0/0
   865 ;;		Unchanged: 0/0
   866 ;; Data sizes:     COMRAM   BANK0   BANK1   BANK2   BANK3   BANK4   BANK5   BANK6   BANK7   BANK8   BANK9  BANK10  BANK1
      +1  BANK12  BANK13  BANK14  BANK15
   867 ;;      Params:         0       0       0       0       0       0       0       0       0       0       0       0       
      +0       0       0       0       0
   868 ;;      Locals:         0       0       0       0       0       0       0       0       0       0       0       0       
      +0       0       0       0       0
   869 ;;      Temps:          2       0       0       0       0       0       0       0       0       0       0       0       
      +0       0       0       0       0
   870 ;;      Totals:         2       0       0       0       0       0       0       0       0       0       0       0       
      +0       0       0       0       0
   871 ;;Total ram usage:        2 bytes
   872 ;; Hardware stack levels used: 1
   873 ;; Hardware stack levels required when called: 2
   874 ;; This function calls:
   875 ;;		_INT1_ISR
   876 ;;		_INT2_ISR
   877 ;;		_PIN_MANAGER_IOC
   878 ;;		_TMR1_ISR
   879 ;;		_TMR3_ISR
   880 ;; This function is called by:
   881 ;;		Interrupt level 2
   882 ;; This function uses a non-reentrant model
   883 ;;
   884                           
   885                           	psect	intcode
   886   000008                     __pintcode:
   887                           	callstack 0
   888   000008                     _INTERRUPT_InterruptManager:
   889                           	callstack 26
   890                           
   891                           ;incstack = 0
   892   000008  CFE1 F02E          	movff	fsr1l,??_INTERRUPT_InterruptManager
   893   00000C  CFE2 F02F          	movff	fsr1h,??_INTERRUPT_InterruptManager+1
   894   000010  EE1A  F09B         	lfsr	1,___inthi_sp
   895                           
   896                           ;interrupt_manager.c: 60: if(INTCON3bits.INT1IE == 1 && INTCON3bits.INT1IF == 1)
   897   000014  B6F0               	btfsc	240,3,c	;volatile
   898   000016  A0F0               	btfss	240,0,c	;volatile
   899   000018  D003               	goto	i2l2566
   900                           
   901                           ;interrupt_manager.c: 61: {;interrupt_manager.c: 62: INT1_ISR();
   902   00001A  ECF6  F000         	call	_INT1_ISR	;wreg free
   903                           
   904                           ;interrupt_manager.c: 63: }
   905   00001E  D01B               	goto	i2l2571
   906   000020                     i2l2566:
   907                           
   908                           ;interrupt_manager.c: 64: else if(INTCON3bits.INT2IE == 1 && INTCON3bits.INT2IF == 1)
   909   000020  B8F0               	btfsc	240,4,c	;volatile
   910   000022  A2F0               	btfss	240,1,c	;volatile
   911   000024  D003               	goto	i2l2568
   912                           
   913                           ;interrupt_manager.c: 65: {;interrupt_manager.c: 66: INT2_ISR();
   914   000026  ECF4  F000         	call	_INT2_ISR	;wreg free
   915                           
   916                           ;interrupt_manager.c: 67: }
   917   00002A  D015               	goto	i2l2571
   918   00002C                     i2l2568:
   919                           
   920                           ;interrupt_manager.c: 68: else if(INTCONbits.PEIE == 1 && PIE2bits.TMR3IE == 1 && PIR2bi
      +                          ts.TMR3IF == 1)
   921   00002C  BCF2               	btfsc	242,6,c	;volatile
   922   00002E  A2A0               	btfss	160,1,c	;volatile
   923   000030  D005               	goto	i2l2570
   924   000032  A2A1               	btfss	161,1,c	;volatile
   925   000034  D003               	goto	i2l2570
   926                           
   927                           ;interrupt_manager.c: 69: {;interrupt_manager.c: 70: TMR3_ISR();
   928   000036  ECE1  F000         	call	_TMR3_ISR	;wreg free
   929                           
   930                           ;interrupt_manager.c: 71: }
   931   00003A  D00D               	goto	i2l2571
   932   00003C                     i2l2570:
   933                           
   934                           ;interrupt_manager.c: 72: else if(INTCONbits.PEIE == 1 && PIE1bits.TMR1IE == 1 && PIR1bi
      +                          ts.TMR1IF == 1)
   935   00003C  BCF2               	btfsc	242,6,c	;volatile
   936   00003E  A09D               	btfss	157,0,c	;volatile
   937   000040  D005               	goto	i2l2572
   938   000042  A09E               	btfss	158,0,c	;volatile
   939   000044  D003               	goto	i2l2572
   940                           
   941                           ;interrupt_manager.c: 73: {;interrupt_manager.c: 74: TMR1_ISR();
   942   000046  ECE7  F000         	call	_TMR1_ISR	;wreg free
   943                           
   944                           ;interrupt_manager.c: 75: }
   945   00004A  D005               	goto	i2l2571
   946   00004C                     i2l2572:
   947                           
   948                           ;interrupt_manager.c: 76: else if(INTCONbits.RBIE == 1 && INTCONbits.RBIF == 1)
   949   00004C  B6F2               	btfsc	242,3,c	;volatile
   950   00004E  A0F2               	btfss	242,0,c	;volatile
   951   000050  D002               	goto	i2l2571
   952                           
   953                           ;interrupt_manager.c: 77: {;interrupt_manager.c: 78: PIN_MANAGER_IOC();
   954   000052  ECED  F000         	call	_PIN_MANAGER_IOC	;wreg free
   955   000056                     i2l2571:
   956   000056  C02F  FFE2         	movff	??_INTERRUPT_InterruptManager+1,fsr1h
   957   00005A  C02E  FFE1         	movff	??_INTERRUPT_InterruptManager,fsr1l
   958   00005E  0011               	retfie		f
   959   000060                     __end_of_INTERRUPT_InterruptManager:
   960                           	callstack 0
   961                           
   962 ;; *************** function _TMR3_ISR *****************
   963 ;; Defined at:
   964 ;;		line 159 in file "mcc_generated_files/tmr3.c"
   965 ;; Parameters:    Size  Location     Type
   966 ;;		None
   967 ;; Auto vars:     Size  Location     Type
   968 ;;		None
   969 ;; Return value:  Size  Location     Type
   970 ;;                  1    wreg      void 
   971 ;; Registers used:
   972 ;;		wreg, status,2, status,0, cstack
   973 ;; Tracked objects:
   974 ;;		On entry : 0/0
   975 ;;		On exit  : 0/0
   976 ;;		Unchanged: 0/0
   977 ;; Data sizes:     COMRAM   BANK0   BANK1   BANK2   BANK3   BANK4   BANK5   BANK6   BANK7   BANK8   BANK9  BANK10  BANK1
      +1  BANK12  BANK13  BANK14  BANK15
   978 ;;      Params:         0       0       0       0       0       0       0       0       0       0       0       0       
      +0       0       0       0       0
   979 ;;      Locals:         0       0       0       0       0       0       0       0       0       0       0       0       
      +0       0       0       0       0
   980 ;;      Temps:          0       0       0       0       0       0       0       0       0       0       0       0       
      +0       0       0       0       0
   981 ;;      Totals:         0       0       0       0       0       0       0       0       0       0       0       0       
      +0       0       0       0       0
   982 ;;Total ram usage:        0 bytes
   983 ;; Hardware stack levels used: 1
   984 ;; Hardware stack levels required when called: 1
   985 ;; This function calls:
   986 ;;		_TMR3_CallBack
   987 ;; This function is called by:
   988 ;;		_INTERRUPT_InterruptManager
   989 ;; This function uses a non-reentrant model
   990 ;;
   991                           
   992                           	psect	text6
   993   0001C2                     __ptext6:
   994                           	callstack 0
   995   0001C2                     _TMR3_ISR:
   996                           	callstack 26
   997                           
   998                           ;tmr3.c: 163: PIR2bits.TMR3IF = 0;
   999                           
  1000                           ;incstack = 0
  1001   0001C2  92A1               	bcf	161,1,c	;volatile
  1002                           
  1003                           ;tmr3.c: 166: TMR3H = (timer3ReloadVal >> 8);
  1004   0001C4  C010  FFB3         	movff	_timer3ReloadVal+1,4019	;volatile
  1005                           
  1006                           ;tmr3.c: 167: TMR3L = (uint8_t) timer3ReloadVal;
  1007   0001C8  C00F  FFB2         	movff	_timer3ReloadVal,4018	;volatile
  1008                           
  1009                           ;tmr3.c: 171: TMR3_CallBack();
  1010   0001CC  0012               	return		;wreg free
  1011   0001CE                     __end_of_TMR3_ISR:
  1012                           	callstack 0
  1013                           
  1014 ;; *************** function _TMR3_CallBack *****************
  1015 ;; Defined at:
  1016 ;;		line 174 in file "mcc_generated_files/tmr3.c"
  1017 ;; Parameters:    Size  Location     Type
  1018 ;;		None
  1019 ;; Auto vars:     Size  Location     Type
  1020 ;;		None
  1021 ;; Return value:  Size  Location     Type
  1022 ;;                  1    wreg      void 
  1023 ;; Registers used:
  1024 ;;		wreg, status,2, status,0
  1025 ;; Tracked objects:
  1026 ;;		On entry : 0/0
  1027 ;;		On exit  : 0/0
  1028 ;;		Unchanged: 0/0
  1029 ;; Data sizes:     COMRAM   BANK0   BANK1   BANK2   BANK3   BANK4   BANK5   BANK6   BANK7   BANK8   BANK9  BANK10  BANK1
      +1  BANK12  BANK13  BANK14  BANK15
  1030 ;;      Params:         0       0       0       0       0       0       0       0       0       0       0       0       
      +0       0       0       0       0
  1031 ;;      Locals:         0       0       0       0       0       0       0       0       0       0       0       0       
      +0       0       0       0       0
  1032 ;;      Temps:          0       0       0       0       0       0       0       0       0       0       0       0       
      +0       0       0       0       0
  1033 ;;      Totals:         0       0       0       0       0       0       0       0       0       0       0       0       
      +0       0       0       0       0
  1034 ;;Total ram usage:        0 bytes
  1035 ;; Hardware stack levels used: 1
  1036 ;; This function calls:
  1037 ;;		Nothing
  1038 ;; This function is called by:
  1039 ;;		_TMR3_ISR
  1040 ;; This function uses a non-reentrant model
  1041 ;;
  1042                           
  1043                           	psect	text7
  1044   0001F0                     __ptext7:
  1045                           	callstack 0
  1046   0001F0                     _TMR3_CallBack:
  1047                           	callstack 26
  1048                           
  1049                           ;incstack = 0
  1050   0001F0  0012               	return		;funcret
  1051   0001F2                     __end_of_TMR3_CallBack:
  1052                           	callstack 0
  1053                           
  1054 ;; *************** function _TMR1_ISR *****************
  1055 ;; Defined at:
  1056 ;;		line 159 in file "mcc_generated_files/tmr1.c"
  1057 ;; Parameters:    Size  Location     Type
  1058 ;;		None
  1059 ;; Auto vars:     Size  Location     Type
  1060 ;;		None
  1061 ;; Return value:  Size  Location     Type
  1062 ;;                  1    wreg      void 
  1063 ;; Registers used:
  1064 ;;		wreg, status,2, status,0, cstack
  1065 ;; Tracked objects:
  1066 ;;		On entry : 0/0
  1067 ;;		On exit  : 0/0
  1068 ;;		Unchanged: 0/0
  1069 ;; Data sizes:     COMRAM   BANK0   BANK1   BANK2   BANK3   BANK4   BANK5   BANK6   BANK7   BANK8   BANK9  BANK10  BANK1
      +1  BANK12  BANK13  BANK14  BANK15
  1070 ;;      Params:         0       0       0       0       0       0       0       0       0       0       0       0       
      +0       0       0       0       0
  1071 ;;      Locals:         0       0       0       0       0       0       0       0       0       0       0       0       
      +0       0       0       0       0
  1072 ;;      Temps:          0       0       0       0       0       0       0       0       0       0       0       0       
      +0       0       0       0       0
  1073 ;;      Totals:         0       0       0       0       0       0       0       0       0       0       0       0       
      +0       0       0       0       0
  1074 ;;Total ram usage:        0 bytes
  1075 ;; Hardware stack levels used: 1
  1076 ;; Hardware stack levels required when called: 1
  1077 ;; This function calls:
  1078 ;;		_TMR1_CallBack
  1079 ;; This function is called by:
  1080 ;;		_INTERRUPT_InterruptManager
  1081 ;; This function uses a non-reentrant model
  1082 ;;
  1083                           
  1084                           	psect	text8
  1085   0001CE                     __ptext8:
  1086                           	callstack 0
  1087   0001CE                     _TMR1_ISR:
  1088                           	callstack 26
  1089                           
  1090                           ;tmr1.c: 163: PIR1bits.TMR1IF = 0;
  1091                           
  1092                           ;incstack = 0
  1093   0001CE  909E               	bcf	158,0,c	;volatile
  1094                           
  1095                           ;tmr1.c: 166: TMR1H = (timer1ReloadVal >> 8);
  1096   0001D0  C014  FFCF         	movff	_timer1ReloadVal+1,4047	;volatile
  1097                           
  1098                           ;tmr1.c: 167: TMR1L = (uint8_t) timer1ReloadVal;
  1099   0001D4  C013  FFCE         	movff	_timer1ReloadVal,4046	;volatile
  1100                           
  1101                           ;tmr1.c: 171: TMR1_CallBack();
  1102   0001D8  0012               	return		;wreg free
  1103   0001DA                     __end_of_TMR1_ISR:
  1104                           	callstack 0
  1105                           
  1106 ;; *************** function _TMR1_CallBack *****************
  1107 ;; Defined at:
  1108 ;;		line 174 in file "mcc_generated_files/tmr1.c"
  1109 ;; Parameters:    Size  Location     Type
  1110 ;;		None
  1111 ;; Auto vars:     Size  Location     Type
  1112 ;;		None
  1113 ;; Return value:  Size  Location     Type
  1114 ;;                  1    wreg      void 
  1115 ;; Registers used:
  1116 ;;		wreg, status,2, status,0
  1117 ;; Tracked objects:
  1118 ;;		On entry : 0/0
  1119 ;;		On exit  : 0/0
  1120 ;;		Unchanged: 0/0
  1121 ;; Data sizes:     COMRAM   BANK0   BANK1   BANK2   BANK3   BANK4   BANK5   BANK6   BANK7   BANK8   BANK9  BANK10  BANK1
      +1  BANK12  BANK13  BANK14  BANK15
  1122 ;;      Params:         0       0       0       0       0       0       0       0       0       0       0       0       
      +0       0       0       0       0
  1123 ;;      Locals:         0       0       0       0       0       0       0       0       0       0       0       0       
      +0       0       0       0       0
  1124 ;;      Temps:          0       0       0       0       0       0       0       0       0       0       0       0       
      +0       0       0       0       0
  1125 ;;      Totals:         0       0       0       0       0       0       0       0       0       0       0       0       
      +0       0       0       0       0
  1126 ;;Total ram usage:        0 bytes
  1127 ;; Hardware stack levels used: 1
  1128 ;; This function calls:
  1129 ;;		Nothing
  1130 ;; This function is called by:
  1131 ;;		_TMR1_ISR
  1132 ;; This function uses a non-reentrant model
  1133 ;;
  1134                           
  1135                           	psect	text9
  1136   0001F2                     __ptext9:
  1137                           	callstack 0
  1138   0001F2                     _TMR1_CallBack:
  1139                           	callstack 26
  1140                           
  1141                           ;incstack = 0
  1142   0001F2  0012               	return		;funcret
  1143   0001F4                     __end_of_TMR1_CallBack:
  1144                           	callstack 0
  1145                           
  1146 ;; *************** function _PIN_MANAGER_IOC *****************
  1147 ;; Defined at:
  1148 ;;		line 103 in file "mcc_generated_files/pin_manager.c"
  1149 ;; Parameters:    Size  Location     Type
  1150 ;;		None
  1151 ;; Auto vars:     Size  Location     Type
  1152 ;;		None
  1153 ;; Return value:  Size  Location     Type
  1154 ;;                  1    wreg      void 
  1155 ;; Registers used:
  1156 ;;		wreg, status,2, status,0, cstack
  1157 ;; Tracked objects:
  1158 ;;		On entry : 0/0
  1159 ;;		On exit  : 0/0
  1160 ;;		Unchanged: 0/0
  1161 ;; Data sizes:     COMRAM   BANK0   BANK1   BANK2   BANK3   BANK4   BANK5   BANK6   BANK7   BANK8   BANK9  BANK10  BANK1
      +1  BANK12  BANK13  BANK14  BANK15
  1162 ;;      Params:         0       0       0       0       0       0       0       0       0       0       0       0       
      +0       0       0       0       0
  1163 ;;      Locals:         0       0       0       0       0       0       0       0       0       0       0       0       
      +0       0       0       0       0
  1164 ;;      Temps:          0       0       0       0       0       0       0       0       0       0       0       0       
      +0       0       0       0       0
  1165 ;;      Totals:         0       0       0       0       0       0       0       0       0       0       0       0       
      +0       0       0       0       0
  1166 ;;Total ram usage:        0 bytes
  1167 ;; Hardware stack levels used: 1
  1168 ;; Hardware stack levels required when called: 1
  1169 ;; This function calls:
  1170 ;;		_IOCB4_ISR
  1171 ;; This function is called by:
  1172 ;;		_INTERRUPT_InterruptManager
  1173 ;; This function uses a non-reentrant model
  1174 ;;
  1175                           
  1176                           	psect	text10
  1177   0001DA                     __ptext10:
  1178                           	callstack 0
  1179   0001DA                     _PIN_MANAGER_IOC:
  1180                           	callstack 26
  1181                           
  1182                           ;pin_manager.c: 106: if(IOCBbits.IOCB4 == 1)
  1183                           
  1184                           ;incstack = 0
  1185   0001DA  B862               	btfsc	98,4,c	;volatile
  1186                           
  1187                           ;pin_manager.c: 107: {;pin_manager.c: 108: IOCB4_ISR();
  1188   0001DC  ECFA  F000         	call	_IOCB4_ISR	;wreg free
  1189                           
  1190                           ;pin_manager.c: 109: };pin_manager.c: 112: INTCONbits.RBIF = 0;
  1191   0001E0  90F2               	bcf	242,0,c	;volatile
  1192   0001E2  0012               	return		;funcret
  1193   0001E4                     __end_of_PIN_MANAGER_IOC:
  1194                           	callstack 0
  1195                           
  1196 ;; *************** function _IOCB4_ISR *****************
  1197 ;; Defined at:
  1198 ;;		line 119 in file "mcc_generated_files/pin_manager.c"
  1199 ;; Parameters:    Size  Location     Type
  1200 ;;		None
  1201 ;; Auto vars:     Size  Location     Type
  1202 ;;		None
  1203 ;; Return value:  Size  Location     Type
  1204 ;;                  1    wreg      void 
  1205 ;; Registers used:
  1206 ;;		wreg, status,2, status,0
  1207 ;; Tracked objects:
  1208 ;;		On entry : 0/0
  1209 ;;		On exit  : 0/0
  1210 ;;		Unchanged: 0/0
  1211 ;; Data sizes:     COMRAM   BANK0   BANK1   BANK2   BANK3   BANK4   BANK5   BANK6   BANK7   BANK8   BANK9  BANK10  BANK1
      +1  BANK12  BANK13  BANK14  BANK15
  1212 ;;      Params:         0       0       0       0       0       0       0       0       0       0       0       0       
      +0       0       0       0       0
  1213 ;;      Locals:         0       0       0       0       0       0       0       0       0       0       0       0       
      +0       0       0       0       0
  1214 ;;      Temps:          0       0       0       0       0       0       0       0       0       0       0       0       
      +0       0       0       0       0
  1215 ;;      Totals:         0       0       0       0       0       0       0       0       0       0       0       0       
      +0       0       0       0       0
  1216 ;;Total ram usage:        0 bytes
  1217 ;; Hardware stack levels used: 1
  1218 ;; This function calls:
  1219 ;;		Nothing
  1220 ;; This function is called by:
  1221 ;;		_PIN_MANAGER_IOC
  1222 ;; This function uses a non-reentrant model
  1223 ;;
  1224                           
  1225                           	psect	text11
  1226   0001F4                     __ptext11:
  1227                           	callstack 0
  1228   0001F4                     _IOCB4_ISR:
  1229                           	callstack 26
  1230                           
  1231                           ;incstack = 0
  1232   0001F4  0012               	return		;funcret
  1233   0001F6                     __end_of_IOCB4_ISR:
  1234                           	callstack 0
  1235                           
  1236 ;; *************** function _INT2_ISR *****************
  1237 ;; Defined at:
  1238 ;;		line 86 in file "mcc_generated_files/ext_int.c"
  1239 ;; Parameters:    Size  Location     Type
  1240 ;;		None
  1241 ;; Auto vars:     Size  Location     Type
  1242 ;;		None
  1243 ;; Return value:  Size  Location     Type
  1244 ;;                  1    wreg      void 
  1245 ;; Registers used:
  1246 ;;		wreg, status,2, status,0, cstack
  1247 ;; Tracked objects:
  1248 ;;		On entry : 0/0
  1249 ;;		On exit  : 0/0
  1250 ;;		Unchanged: 0/0
  1251 ;; Data sizes:     COMRAM   BANK0   BANK1   BANK2   BANK3   BANK4   BANK5   BANK6   BANK7   BANK8   BANK9  BANK10  BANK1
      +1  BANK12  BANK13  BANK14  BANK15
  1252 ;;      Params:         0       0       0       0       0       0       0       0       0       0       0       0       
      +0       0       0       0       0
  1253 ;;      Locals:         0       0       0       0       0       0       0       0       0       0       0       0       
      +0       0       0       0       0
  1254 ;;      Temps:          0       0       0       0       0       0       0       0       0       0       0       0       
      +0       0       0       0       0
  1255 ;;      Totals:         0       0       0       0       0       0       0       0       0       0       0       0       
      +0       0       0       0       0
  1256 ;;Total ram usage:        0 bytes
  1257 ;; Hardware stack levels used: 1
  1258 ;; Hardware stack levels required when called: 1
  1259 ;; This function calls:
  1260 ;;		_INT2_CallBack
  1261 ;; This function is called by:
  1262 ;;		_INTERRUPT_InterruptManager
  1263 ;; This function uses a non-reentrant model
  1264 ;;
  1265                           
  1266                           	psect	text12
  1267   0001E8                     __ptext12:
  1268                           	callstack 0
  1269   0001E8                     _INT2_ISR:
  1270                           	callstack 26
  1271                           
  1272                           ;ext_int.c: 92: (INTCON3bits.INT2IF = 0);
  1273                           
  1274                           ;incstack = 0
  1275   0001E8  92F0               	bcf	240,1,c	;volatile
  1276                           
  1277                           ;ext_int.c: 95: INT2_CallBack();
  1278   0001EA  0012               	return		;wreg free
  1279   0001EC                     __end_of_INT2_ISR:
  1280                           	callstack 0
  1281                           
  1282 ;; *************** function _INT2_CallBack *****************
  1283 ;; Defined at:
  1284 ;;		line 101 in file "mcc_generated_files/ext_int.c"
  1285 ;; Parameters:    Size  Location     Type
  1286 ;;		None
  1287 ;; Auto vars:     Size  Location     Type
  1288 ;;		None
  1289 ;; Return value:  Size  Location     Type
  1290 ;;                  1    wreg      void 
  1291 ;; Registers used:
  1292 ;;		wreg, status,2, status,0
  1293 ;; Tracked objects:
  1294 ;;		On entry : 0/0
  1295 ;;		On exit  : 0/0
  1296 ;;		Unchanged: 0/0
  1297 ;; Data sizes:     COMRAM   BANK0   BANK1   BANK2   BANK3   BANK4   BANK5   BANK6   BANK7   BANK8   BANK9  BANK10  BANK1
      +1  BANK12  BANK13  BANK14  BANK15
  1298 ;;      Params:         0       0       0       0       0       0       0       0       0       0       0       0       
      +0       0       0       0       0
  1299 ;;      Locals:         0       0       0       0       0       0       0       0       0       0       0       0       
      +0       0       0       0       0
  1300 ;;      Temps:          0       0       0       0       0       0       0       0       0       0       0       0       
      +0       0       0       0       0
  1301 ;;      Totals:         0       0       0       0       0       0       0       0       0       0       0       0       
      +0       0       0       0       0
  1302 ;;Total ram usage:        0 bytes
  1303 ;; Hardware stack levels used: 1
  1304 ;; This function calls:
  1305 ;;		Nothing
  1306 ;; This function is called by:
  1307 ;;		_INT2_ISR
  1308 ;; This function uses a non-reentrant model
  1309 ;;
  1310                           
  1311                           	psect	text13
  1312   0001F6                     __ptext13:
  1313                           	callstack 0
  1314   0001F6                     _INT2_CallBack:
  1315                           	callstack 26
  1316                           
  1317                           ;incstack = 0
  1318   0001F6  0012               	return		;funcret
  1319   0001F8                     __end_of_INT2_CallBack:
  1320                           	callstack 0
  1321                           
  1322 ;; *************** function _INT1_ISR *****************
  1323 ;; Defined at:
  1324 ;;		line 45 in file "mcc_generated_files/ext_int.c"
  1325 ;; Parameters:    Size  Location     Type
  1326 ;;		None
  1327 ;; Auto vars:     Size  Location     Type
  1328 ;;		None
  1329 ;; Return value:  Size  Location     Type
  1330 ;;                  1    wreg      void 
  1331 ;; Registers used:
  1332 ;;		wreg, status,2, status,0, cstack
  1333 ;; Tracked objects:
  1334 ;;		On entry : 0/0
  1335 ;;		On exit  : 0/0
  1336 ;;		Unchanged: 0/0
  1337 ;; Data sizes:     COMRAM   BANK0   BANK1   BANK2   BANK3   BANK4   BANK5   BANK6   BANK7   BANK8   BANK9  BANK10  BANK1
      +1  BANK12  BANK13  BANK14  BANK15
  1338 ;;      Params:         0       0       0       0       0       0       0       0       0       0       0       0       
      +0       0       0       0       0
  1339 ;;      Locals:         0       0       0       0       0       0       0       0       0       0       0       0       
      +0       0       0       0       0
  1340 ;;      Temps:          0       0       0       0       0       0       0       0       0       0       0       0       
      +0       0       0       0       0
  1341 ;;      Totals:         0       0       0       0       0       0       0       0       0       0       0       0       
      +0       0       0       0       0
  1342 ;;Total ram usage:        0 bytes
  1343 ;; Hardware stack levels used: 1
  1344 ;; Hardware stack levels required when called: 1
  1345 ;; This function calls:
  1346 ;;		_INT1_CallBack
  1347 ;; This function is called by:
  1348 ;;		_INTERRUPT_InterruptManager
  1349 ;; This function uses a non-reentrant model
  1350 ;;
  1351                           
  1352                           	psect	text14
  1353   0001EC                     __ptext14:
  1354                           	callstack 0
  1355   0001EC                     _INT1_ISR:
  1356                           	callstack 26
  1357                           
  1358                           ;ext_int.c: 51: (INTCON3bits.INT1IF = 0);
  1359                           
  1360                           ;incstack = 0
  1361   0001EC  90F0               	bcf	240,0,c	;volatile
  1362                           
  1363                           ;ext_int.c: 54: INT1_CallBack();
  1364   0001EE  0012               	return		;wreg free
  1365   0001F0                     __end_of_INT1_ISR:
  1366                           	callstack 0
  1367                           
  1368 ;; *************** function _INT1_CallBack *****************
  1369 ;; Defined at:
  1370 ;;		line 60 in file "mcc_generated_files/ext_int.c"
  1371 ;; Parameters:    Size  Location     Type
  1372 ;;		None
  1373 ;; Auto vars:     Size  Location     Type
  1374 ;;		None
  1375 ;; Return value:  Size  Location     Type
  1376 ;;                  1    wreg      void 
  1377 ;; Registers used:
  1378 ;;		wreg, status,2, status,0
  1379 ;; Tracked objects:
  1380 ;;		On entry : 0/0
  1381 ;;		On exit  : 0/0
  1382 ;;		Unchanged: 0/0
  1383 ;; Data sizes:     COMRAM   BANK0   BANK1   BANK2   BANK3   BANK4   BANK5   BANK6   BANK7   BANK8   BANK9  BANK10  BANK1
      +1  BANK12  BANK13  BANK14  BANK15
  1384 ;;      Params:         0       0       0       0       0       0       0       0       0       0       0       0       
      +0       0       0       0       0
  1385 ;;      Locals:         0       0       0       0       0       0       0       0       0       0       0       0       
      +0       0       0       0       0
  1386 ;;      Temps:          0       0       0       0       0       0       0       0       0       0       0       0       
      +0       0       0       0       0
  1387 ;;      Totals:         0       0       0       0       0       0       0       0       0       0       0       0       
      +0       0       0       0       0
  1388 ;;Total ram usage:        0 bytes
  1389 ;; Hardware stack levels used: 1
  1390 ;; This function calls:
  1391 ;;		Nothing
  1392 ;; This function is called by:
  1393 ;;		_INT1_ISR
  1394 ;; This function uses a non-reentrant model
  1395 ;;
  1396                           
  1397                           	psect	text15
  1398   0001F8                     __ptext15:
  1399                           	callstack 0
  1400   0001F8                     _INT1_CallBack:
  1401                           	callstack 26
  1402                           
  1403                           ;incstack = 0
  1404   0001F8  0012               	return		;funcret
  1405   0001FA                     __end_of_INT1_CallBack:
  1406                           	callstack 0
  1407                           
  1408                           	psect	rparam
  1409   000000                     
  1410                           	psect	temp
  1411   00003D                     btemp:
  1412                           	callstack 0
  1413   00003D                     	ds	12
  1414   000000                     wtemp0	set	btemp
  1415   000000                     wtemp1	set	btemp+2
  1416   000000                     wtemp2	set	btemp+4
  1417   000000                     wtemp3	set	btemp+6
  1418   000000                     wtemp4	set	btemp+8
  1419   000000                     wtemp5	set	btemp+10
  1420   000000                     wtemp8	set	btemp+1
  1421   000000                     ttemp0	set	btemp
  1422   000000                     ttemp1	set	btemp+3
  1423   000000                     ttemp2	set	btemp+6
  1424   000000                     ttemp3	set	btemp+9
  1425   000000                     ttemp5	set	btemp+1
  1426   000000                     ttemp6	set	btemp+4
  1427   000000                     ttemp7	set	btemp+8
  1428   000000                     ltemp0	set	btemp
  1429   000000                     ltemp1	set	btemp+4
  1430   000000                     ltemp2	set	btemp+8
  1431   000000                     lltemp0	set	btemp
  1432                           
  1433                           	psect	idloc
  1434                           
  1435                           ;Config register IDLOC0 @ 0x200000
  1436                           ;	unspecified, using default values
  1437   200000                     	org	2097152
  1438   200000  FF                 	db	255
  1439                           
  1440                           ;Config register IDLOC1 @ 0x200001
  1441                           ;	unspecified, using default values
  1442   200001                     	org	2097153
  1443   200001  FF                 	db	255
  1444                           
  1445                           ;Config register IDLOC2 @ 0x200002
  1446                           ;	unspecified, using default values
  1447   200002                     	org	2097154
  1448   200002  FF                 	db	255
  1449                           
  1450                           ;Config register IDLOC3 @ 0x200003
  1451                           ;	unspecified, using default values
  1452   200003                     	org	2097155
  1453   200003  FF                 	db	255
  1454                           
  1455                           ;Config register IDLOC4 @ 0x200004
  1456                           ;	unspecified, using default values
  1457   200004                     	org	2097156
  1458   200004  FF                 	db	255
  1459                           
  1460                           ;Config register IDLOC5 @ 0x200005
  1461                           ;	unspecified, using default values
  1462   200005                     	org	2097157
  1463   200005  FF                 	db	255
  1464                           
  1465                           ;Config register IDLOC6 @ 0x200006
  1466                           ;	unspecified, using default values
  1467   200006                     	org	2097158
  1468   200006  FF                 	db	255
  1469                           
  1470                           ;Config register IDLOC7 @ 0x200007
  1471                           ;	unspecified, using default values
  1472   200007                     	org	2097159
  1473   200007  FF                 	db	255
  1474                           
  1475                           	psect	config
  1476                           
  1477                           ; Padding undefined space
  1478   300000                     	org	3145728
  1479   300000  FF                 	db	255
  1480                           
  1481                           ;Config register CONFIG1H @ 0x300001
  1482                           ;	Oscillator Selection bits
  1483                           ;	FOSC = INTIO67, Internal oscillator block
  1484                           ;	4X PLL Enable
  1485                           ;	PLLCFG = OFF, Oscillator used directly
  1486                           ;	Primary clock enable bit
  1487                           ;	PRICLKEN = ON, Primary clock is always enabled
  1488                           ;	Fail-Safe Clock Monitor Enable bit
  1489                           ;	FCMEN = OFF, Fail-Safe Clock Monitor disabled
  1490                           ;	Internal/External Oscillator Switchover bit
  1491                           ;	IESO = OFF, Oscillator Switchover mode disabled
  1492   300001                     	org	3145729
  1493   300001  28                 	db	40
  1494                           
  1495                           ;Config register CONFIG2L @ 0x300002
  1496                           ;	Power-up Timer Enable bit
  1497                           ;	PWRTEN = OFF, Power up timer disabled
  1498                           ;	Brown-out Reset Enable bits
  1499                           ;	BOREN = SBORDIS, Brown-out Reset enabled in hardware only (SBOREN is disabled)
  1500                           ;	Brown Out Reset Voltage bits
  1501                           ;	BORV = 190, VBOR set to 1.90 V nominal
  1502   300002                     	org	3145730
  1503   300002  1F                 	db	31
  1504                           
  1505                           ;Config register CONFIG2H @ 0x300003
  1506                           ;	Watchdog Timer Enable bits
  1507                           ;	WDTEN = OFF, Watch dog timer is always disabled. SWDTEN has no effect.
  1508                           ;	Watchdog Timer Postscale Select bits
  1509                           ;	WDTPS = 32768, 1:32768
  1510   300003                     	org	3145731
  1511   300003  3C                 	db	60
  1512                           
  1513                           ; Padding undefined space
  1514   300004                     	org	3145732
  1515   300004  FF                 	db	255
  1516                           
  1517                           ;Config register CONFIG3H @ 0x300005
  1518                           ;	CCP2 MUX bit
  1519                           ;	CCP2MX = PORTC1, CCP2 input/output is multiplexed with RC1
  1520                           ;	PORTB A/D Enable bit
  1521                           ;	PBADEN = ON, PORTB<5:0> pins are configured as analog input channels on Reset
  1522                           ;	P3A/CCP3 Mux bit
  1523                           ;	CCP3MX = PORTB5, P3A/CCP3 input/output is multiplexed with RB5
  1524                           ;	HFINTOSC Fast Start-up
  1525                           ;	HFOFST = ON, HFINTOSC output and ready status are not delayed by the oscillator stable
      +                           status
  1526                           ;	Timer3 Clock input mux bit
  1527                           ;	T3CMX = PORTC0, T3CKI is on RC0
  1528                           ;	ECCP2 B output mux bit
  1529                           ;	P2BMX = PORTD2, P2B is on RD2
  1530                           ;	MCLR Pin Enable bit
  1531                           ;	MCLRE = EXTMCLR, MCLR pin enabled, RE3 input pin disabled
  1532   300005                     	org	3145733
  1533   300005  BF                 	db	191
  1534                           
  1535                           ;Config register CONFIG4L @ 0x300006
  1536                           ;	Stack Full/Underflow Reset Enable bit
  1537                           ;	STVREN = ON, Stack full/underflow will cause Reset
  1538                           ;	Single-Supply ICSP Enable bit
  1539                           ;	LVP = ON, Single-Supply ICSP enabled if MCLRE is also 1
  1540                           ;	Extended Instruction Set Enable bit
  1541                           ;	XINST = OFF, Instruction set extension and Indexed Addressing mode disabled (Legacy mo
      +                          de)
  1542                           ;	Background Debug
  1543                           ;	DEBUG = OFF, Disabled
  1544   300006                     	org	3145734
  1545   300006  85                 	db	133
  1546                           
  1547                           ; Padding undefined space
  1548   300007                     	org	3145735
  1549   300007  FF                 	db	255
  1550                           
  1551                           ;Config register CONFIG5L @ 0x300008
  1552                           ;	Code Protection Block 0
  1553                           ;	CP0 = OFF, Block 0 (000800-003FFFh) not code-protected
  1554                           ;	Code Protection Block 1
  1555                           ;	CP1 = OFF, Block 1 (004000-007FFFh) not code-protected
  1556                           ;	Code Protection Block 2
  1557                           ;	CP2 = OFF, Block 2 (008000-00BFFFh) not code-protected
  1558                           ;	Code Protection Block 3
  1559                           ;	CP3 = OFF, Block 3 (00C000-00FFFFh) not code-protected
  1560   300008                     	org	3145736
  1561   300008  0F                 	db	15
  1562                           
  1563                           ;Config register CONFIG5H @ 0x300009
  1564                           ;	Boot Block Code Protection bit
  1565                           ;	CPB = OFF, Boot block (000000-0007FFh) not code-protected
  1566                           ;	Data EEPROM Code Protection bit
  1567                           ;	CPD = OFF, Data EEPROM not code-protected
  1568   300009                     	org	3145737
  1569   300009  C0                 	db	192
  1570                           
  1571                           ;Config register CONFIG6L @ 0x30000A
  1572                           ;	Write Protection Block 0
  1573                           ;	WRT0 = OFF, Block 0 (000800-003FFFh) not write-protected
  1574                           ;	Write Protection Block 1
  1575                           ;	WRT1 = OFF, Block 1 (004000-007FFFh) not write-protected
  1576                           ;	Write Protection Block 2
  1577                           ;	WRT2 = OFF, Block 2 (008000-00BFFFh) not write-protected
  1578                           ;	Write Protection Block 3
  1579                           ;	WRT3 = OFF, Block 3 (00C000-00FFFFh) not write-protected
  1580   30000A                     	org	3145738
  1581   30000A  0F                 	db	15
  1582                           
  1583                           ;Config register CONFIG6H @ 0x30000B
  1584                           ;	Configuration Register Write Protection bit
  1585                           ;	WRTC = OFF, Configuration registers (300000-3000FFh) not write-protected
  1586                           ;	Boot Block Write Protection bit
  1587                           ;	WRTB = OFF, Boot Block (000000-0007FFh) not write-protected
  1588                           ;	Data EEPROM Write Protection bit
  1589                           ;	WRTD = OFF, Data EEPROM not write-protected
  1590   30000B                     	org	3145739
  1591   30000B  E0                 	db	224
  1592                           
  1593                           ;Config register CONFIG7L @ 0x30000C
  1594                           ;	Table Read Protection Block 0
  1595                           ;	EBTR0 = OFF, Block 0 (000800-003FFFh) not protected from table reads executed in other
      +                           blocks
  1596                           ;	Table Read Protection Block 1
  1597                           ;	EBTR1 = OFF, Block 1 (004000-007FFFh) not protected from table reads executed in other
      +                           blocks
  1598                           ;	Table Read Protection Block 2
  1599                           ;	EBTR2 = OFF, Block 2 (008000-00BFFFh) not protected from table reads executed in other
      +                           blocks
  1600                           ;	Table Read Protection Block 3
  1601                           ;	EBTR3 = OFF, Block 3 (00C000-00FFFFh) not protected from table reads executed in other
      +                           blocks
  1602   30000C                     	org	3145740
  1603   30000C  0F                 	db	15
  1604                           
  1605                           ;Config register CONFIG7H @ 0x30000D
  1606                           ;	Boot Block Table Read Protection bit
  1607                           ;	EBTRB = OFF, Boot Block (000000-0007FFh) not protected from table reads executed in ot
      +                          her blocks
  1608   30000D                     	org	3145741
  1609   30000D  40                 	db	64
  1610                           tosu	equ	0xFFF
  1611                           tosh	equ	0xFFE
  1612                           tosl	equ	0xFFD
  1613                           stkptr	equ	0xFFC
  1614                           pclatu	equ	0xFFB
  1615                           pclath	equ	0xFFA
  1616                           pcl	equ	0xFF9
  1617                           tblptru	equ	0xFF8
  1618                           tblptrh	equ	0xFF7
  1619                           tblptrl	equ	0xFF6
  1620                           tablat	equ	0xFF5
  1621                           prodh	equ	0xFF4
  1622                           prodl	equ	0xFF3
  1623                           indf0	equ	0xFEF
  1624                           postinc0	equ	0xFEE
  1625                           postdec0	equ	0xFED
  1626                           preinc0	equ	0xFEC
  1627                           plusw0	equ	0xFEB
  1628                           fsr0h	equ	0xFEA
  1629                           fsr0l	equ	0xFE9
  1630                           wreg	equ	0xFE8
  1631                           indf1	equ	0xFE7
  1632                           postinc1	equ	0xFE6
  1633                           postdec1	equ	0xFE5
  1634                           preinc1	equ	0xFE4
  1635                           plusw1	equ	0xFE3
  1636                           fsr1h	equ	0xFE2
  1637                           fsr1l	equ	0xFE1
  1638                           bsr	equ	0xFE0
  1639                           indf2	equ	0xFDF
  1640                           postinc2	equ	0xFDE
  1641                           postdec2	equ	0xFDD
  1642                           preinc2	equ	0xFDC
  1643                           plusw2	equ	0xFDB
  1644                           fsr2h	equ	0xFDA
  1645                           fsr2l	equ	0xFD9
  1646                           status	equ	0xFD8

Data Sizes:
    Strings     0
    Constant    87
    Data        4
    BSS         1270
    Persistent  0
    Stack       0

Auto Spaces:
    Space          Size  Autos    Used
    COMRAM           83     15      64
    BANK0           160      0      54
    BANK1           256      0     160
    BANK2           256      0     245
    BANK3           256      0     224
    BANK4           256      0       0
    BANK5           256      0       0
    BANK6           256      0       0
    BANK7           256      0       0
    BANK8           256      0       0
    BANK9           256      0       0
    BANK10          256      0       0
    BANK11          256      0       0
    BANK12          256      0       0
    BANK13          256      0       0
    BANK14          256      0       0
    BANK15           56      0       0

Pointer List with Targets:

    S1600$0$0	PTR unsigned char  size(2) Largest target is 271
		 -> LORAWAN_RxDone@hdr(COMRAM[2]), radioBuffer(BIGRAM[271]), NULL(NULL[0]), 

    sp__ExecuteRxTimingSetup	PTR unsigned char  size(2) Largest target is 271
		 -> LORAWAN_RxDone@hdr(COMRAM[2]), radioBuffer(BIGRAM[271]), 

    sp__ExecuteLinkCheck	PTR unsigned char  size(2) Largest target is 271
		 -> LORAWAN_RxDone@hdr(COMRAM[2]), radioBuffer(BIGRAM[271]), 

    sp__MacExecuteCommands	PTR unsigned char  size(2) Largest target is 271
		 -> LORAWAN_RxDone@hdr(COMRAM[2]), radioBuffer(BIGRAM[271]), 

    IOCB4_InterruptHandler	PTR FTN()void  size(2) Largest target is 1
		 -> Absolute function(), 

    TMR3_InterruptHandler	PTR FTN()void  size(2) Largest target is 1
		 -> Absolute function(), 

    TMR1_InterruptHandler	PTR FTN()void  size(2) Largest target is 1
		 -> Absolute function(), 

    sp__ExecuteRxParamSetupReq	PTR unsigned char  size(2) Largest target is 271
		 -> LORAWAN_RxDone@hdr(COMRAM[2]), radioBuffer(BIGRAM[271]), 

    sp__ExecuteNewChannel	PTR unsigned char  size(2) Largest target is 271
		 -> LORAWAN_RxDone@hdr(COMRAM[2]), radioBuffer(BIGRAM[271]), 

    sp__ExecuteDevStatus	PTR unsigned char  size(2) Largest target is 271
		 -> LORAWAN_RxDone@hdr(COMRAM[2]), radioBuffer(BIGRAM[271]), 

    sp__ExecuteLinkAdr	PTR unsigned char  size(2) Largest target is 271
		 -> LORAWAN_RxDone@hdr(COMRAM[2]), radioBuffer(BIGRAM[271]), 

    sp__ExecuteDutyCycle	PTR unsigned char  size(2) Largest target is 271
		 -> LORAWAN_RxDone@hdr(COMRAM[2]), radioBuffer(BIGRAM[271]), 

    sp__memset	PTR void  size(2) Largest target is 271
		 -> AssemblePacket@mhdr(COMRAM[1]), aesBuffer(COMRAM[16]), GenerateSubkey@l(COMRAM[16]), AESCmac@x(COMRAM[16]), 
		 -> macBuffer(BIGRAM[271]), Channels(BANK3[224]), loRa.activationParameters(BANK2[105]), loRa(BANK2[245]), 

    S1600$RxJoinResponse	PTR FTN(unsigned char ,)void  size(2) Largest target is 0

    rxPayload.RxJoinResponse	PTR FTN(unsigned char ,)void  size(2) Largest target is 0

    S1600$RxAppData	PTR FTN(PTR unsigned char ,unsigned char ,enum E6133,)void  size(2) Largest target is 0

    rxPayload.RxAppData	PTR FTN(PTR unsigned char ,unsigned char ,enum E6133,)void  size(2) Largest target is 0

    sp__memcpy	PTR void  size(2) Largest target is 271
		 -> AESEncodeLoRa@useKey(COMRAM[16]), ComputeMic@mic(COMRAM[4]), ExtractMic@mic(COMRAM[4]), aesBuffer(COMRAM[16]), 
		 -> LORAWAN_RxDone@computedMic(COMRAM[4]), loRa.activationParameters.applicationEui(BANK2[8]), loRa.activationParameters.deviceEui(BANK2[8]), AESCmac@x(COMRAM[16]), 
		 -> UpdateCfList@frequency(COMRAM[4]), macBuffer(BIGRAM[271]), Channels(BANK3[224]), loRa.activationParameters(BANK2[105]), 
		 -> radioBuffer(BIGRAM[271]), loRa(BANK2[245]), RadioConfiguration(BANK0[54]), 

    S924$fhssNextFrequency	PTR FTN()unsigned long  size(2) Largest target is 1
		 -> Absolute function(), 

    RadioConfiguration.fhssNextFrequency	PTR FTN()unsigned long  size(2) Largest target is 1
		 -> Absolute function(), 

    S924$dataBuffer	PTR unsigned char  size(2) Largest target is 271
		 -> radioBuffer(BIGRAM[271]), 

    RadioConfiguration.dataBuffer	PTR unsigned char  size(2) Largest target is 271
		 -> radioBuffer(BIGRAM[271]), 

    S217$callback	PTR FTN(unsigned char ,)void  size(2) Largest target is 1
		 -> DutyCycleCallback(), UpdateJoinSuccessState(), UnconfirmedTransmissionCallback(), AutomaticReplyCallback(), 
		 -> AckRetransmissionCallback(), LORAWAN_LinkCheckCallback(), LORAWAN_ReceiveWindow1Callback(), LORAWAN_ReceiveWindow2Callback(), 
		 -> RADIO_WatchdogTimeout(), RADIO_RxFSKTimeout(), Absolute function(), 

    swTimers.callback	PTR FTN(unsigned char ,)void  size(2) Largest target is 1
		 -> DutyCycleCallback(), UpdateJoinSuccessState(), UnconfirmedTransmissionCallback(), AutomaticReplyCallback(), 
		 -> AckRetransmissionCallback(), LORAWAN_LinkCheckCallback(), LORAWAN_ReceiveWindow1Callback(), LORAWAN_ReceiveWindow2Callback(), 
		 -> RADIO_WatchdogTimeout(), RADIO_RxFSKTimeout(), Absolute function(), 

    INT0_InterruptHandler	PTR FTN()void  size(2) Largest target is 1
		 -> Absolute function(), 

    INT2_InterruptHandler	PTR FTN()void  size(2) Largest target is 1
		 -> Absolute function(), 

    INT1_InterruptHandler	PTR FTN()void  size(2) Largest target is 1
		 -> Absolute function(), 


Critical Paths under _main in COMRAM

    _main->_ADC_Read
    _ADC_Read->_ADC_SelChannel

Critical Paths under _INTERRUPT_InterruptManager in COMRAM

    None.

Critical Paths under _main in BANK0

    None.

Critical Paths under _INTERRUPT_InterruptManager in BANK0

    None.

Critical Paths under _main in BANK1

    None.

Critical Paths under _INTERRUPT_InterruptManager in BANK1

    None.

Critical Paths under _main in BANK2

    None.

Critical Paths under _INTERRUPT_InterruptManager in BANK2

    None.

Critical Paths under _main in BANK3

    None.

Critical Paths under _INTERRUPT_InterruptManager in BANK3

    None.

Critical Paths under _main in BANK4

    None.

Critical Paths under _INTERRUPT_InterruptManager in BANK4

    None.

Critical Paths under _main in BANK5

    None.

Critical Paths under _INTERRUPT_InterruptManager in BANK5

    None.

Critical Paths under _main in BANK6

    None.

Critical Paths under _INTERRUPT_InterruptManager in BANK6

    None.

Critical Paths under _main in BANK7

    None.

Critical Paths under _INTERRUPT_InterruptManager in BANK7

    None.

Critical Paths under _main in BANK8

    None.

Critical Paths under _INTERRUPT_InterruptManager in BANK8

    None.

Critical Paths under _main in BANK9

    None.

Critical Paths under _INTERRUPT_InterruptManager in BANK9

    None.

Critical Paths under _main in BANK10

    None.

Critical Paths under _INTERRUPT_InterruptManager in BANK10

    None.

Critical Paths under _main in BANK11

    None.

Critical Paths under _INTERRUPT_InterruptManager in BANK11

    None.

Critical Paths under _main in BANK12

    None.

Critical Paths under _INTERRUPT_InterruptManager in BANK12

    None.

Critical Paths under _main in BANK13

    None.

Critical Paths under _INTERRUPT_InterruptManager in BANK13

    None.

Critical Paths under _main in BANK14

    None.

Critical Paths under _INTERRUPT_InterruptManager in BANK14

    None.

Critical Paths under _main in BANK15

    None.

Critical Paths under _INTERRUPT_InterruptManager in BANK15

    None.

Call Graph Tables:

 ---------------------------------------------------------------------------------
 (Depth) Function   	        Calls       Base Space   Used Autos Params    Refs
 ---------------------------------------------------------------------------------
 (0) _main                                                 4     4      0      85
                                             11 COMRAM     4     4      0
                           _ADC_Read
                           _ADC_init
                       _IO_pins_init
 ---------------------------------------------------------------------------------
 (1) _IO_pins_init                                         0     0      0       0
 ---------------------------------------------------------------------------------
 (1) _ADC_init                                             0     0      0       0
 ---------------------------------------------------------------------------------
 (1) _ADC_Read                                             7     5      2      61
                                              4 COMRAM     7     5      2
                     _ADC_SelChannel
 ---------------------------------------------------------------------------------
 (2) _ADC_SelChannel                                       2     2      0      15
                                              2 COMRAM     2     2      0
 ---------------------------------------------------------------------------------
 (Depth) Function   	        Calls       Base Space   Used Autos Params    Refs
 ---------------------------------------------------------------------------------
 (3) _INTERRUPT_InterruptManager                           2     2      0       0
                                              0 COMRAM     2     2      0
                           _INT1_ISR
                           _INT2_ISR
                    _PIN_MANAGER_IOC
                           _TMR1_ISR
                           _TMR3_ISR
 ---------------------------------------------------------------------------------
 (4) _TMR3_ISR                                             0     0      0       0
                      _TMR3_CallBack
 ---------------------------------------------------------------------------------
 (5) _TMR3_CallBack                                        0     0      0       0
 ---------------------------------------------------------------------------------
 (4) _TMR1_ISR                                             0     0      0       0
                      _TMR1_CallBack
 ---------------------------------------------------------------------------------
 (5) _TMR1_CallBack                                        0     0      0       0
 ---------------------------------------------------------------------------------
 (4) _PIN_MANAGER_IOC                                      0     0      0       0
                          _IOCB4_ISR
 ---------------------------------------------------------------------------------
 (5) _IOCB4_ISR                                            0     0      0       0
 ---------------------------------------------------------------------------------
 (4) _INT2_ISR                                             0     0      0       0
                      _INT2_CallBack
 ---------------------------------------------------------------------------------
 (5) _INT2_CallBack                                        0     0      0       0
 ---------------------------------------------------------------------------------
 (4) _INT1_ISR                                             0     0      0       0
                      _INT1_CallBack
 ---------------------------------------------------------------------------------
 (5) _INT1_CallBack                                        0     0      0       0
 ---------------------------------------------------------------------------------
 Estimated maximum stack depth 5
 ---------------------------------------------------------------------------------

 Call Graph Graphs:

 _main (ROOT)
   _ADC_Read
     _ADC_SelChannel
   _ADC_init
   _IO_pins_init

 _INTERRUPT_InterruptManager (ROOT)
   _INT1_ISR
     _INT1_CallBack
   _INT2_ISR
     _INT2_CallBack
   _PIN_MANAGER_IOC
     _IOCB4_ISR
   _TMR1_ISR
     _TMR1_CallBack
   _TMR3_ISR
     _TMR3_CallBack

 Address spaces:
Name               Size   Autos  Total    Cost      Usage
BIGRAM             F37      0     21E      51       13.9%
EEDATA             400      0       0       0        0.0%
BITBANK14          100      0       0      32        0.0%
BANK14             100      0       0      33        0.0%
BITBANK13          100      0       0      30        0.0%
BANK13             100      0       0      31        0.0%
BITBANK12          100      0       0      28        0.0%
BANK12             100      0       0      29        0.0%
BITBANK11          100      0       0      26        0.0%
BANK11             100      0       0      27        0.0%
BITBANK10          100      0       0      24        0.0%
BANK10             100      0       0      25        0.0%
BITBANK9           100      0       0      22        0.0%
BANK9              100      0       0      23        0.0%
BITBANK8           100      0       0      20        0.0%
BANK8              100      0       0      21        0.0%
BITBANK7           100      0       0      18        0.0%
BANK7              100      0       0      19        0.0%
BITBANK6           100      0       0      16        0.0%
BANK6              100      0       0      17        0.0%
BITBANK5           100      0       0      14        0.0%
BANK5              100      0       0      15        0.0%
BITBANK4           100      0       0      12        0.0%
BANK4              100      0       0      13        0.0%
BITBANK3           100      0       0      10        0.0%
BANK3              100      0      E0      11       87.5%
BITBANK2           100      0       0       8        0.0%
BANK2              100      0      F5       9       95.7%
BITBANK1           100      0       0       6        0.0%
BANK1              100      0      A0       7       62.5%
BITBANK0            A0      0       0       4        0.0%
BANK0               A0      0      36       5       33.8%
BITCOMRAM           53      0       0       0        0.0%
COMRAM              53      F      40       1       77.1%
BITBANK15           38      0       0      34        0.0%
BANK15              38      0       0      35        0.0%
BITBIGSFRllhl       24      0       0      49        0.0%
BITBIGSFRlhh        1C      0       0      37        0.0%
BITBIGSFRlhllll     11      0       0      47        0.0%
BITBIGSFRlhlhlh      F      0       0      41        0.0%
BITBIGSFRhh          D      0       0      36        0.0%
BITBIGSFRlhlhlh      B      0       0      40        0.0%
BITBIGSFRllhh        9      0       0      48        0.0%
BITBIGSFRlhlhlh      7      0       0      39        0.0%
BITBIGSFRlhllll      5      0       0      46        0.0%
BITBIGSFRlhllhh      4      0       0      44        0.0%
BITBIGSFRlhlllh      4      0       0      45        0.0%
BITBIGSFRlhlhlh      1      0       0      42        0.0%
BITBIGSFRlhlhhh      1      0       0      38        0.0%
BITBIGSFRlhlhll      1      0       0      43        0.0%
BIGSFR               0      0       0     200        0.0%
BITSFR_1             0      0       0     200        0.0%
SFR_1                0      0       0     200        0.0%
BITSFR               0      0       0     200        0.0%
SFR                  0      0       0     200        0.0%
STACK                0      0       0       2        0.0%
NULL                 0      0       0       0        0.0%
ABS                  0      0     2EB      50        0.0%
DATA                 0      0     509       3        0.0%
CODE                 0      0       0       0        0.0%


Microchip Technology PIC18 Macro Assembler V2.40 build 20220703182018 
Symbol Table                                                                                   Sat Jul 23 12:37:59 2022

                      _TMR_ISR_lora 000000                                 u207 00C6  
                               u187 007C                                 u197 0096  
                   _timer1ReloadVal 0013                                 wreg 000FE8  
                     _INT1_CallBack 01F8                     _timer3ReloadVal 000F  
                              l3606 00C0                                l2670 00D4  
                              l3590 0070                                l2687 0164  
                              _LATA 000F89                                _LATB 000F8A  
                              _LATE 000F8D                                _WPUB 000F61  
                     _INT2_CallBack 01F6                                _loRa 0200  
                              _main 0068                                fsr1h 000FE2  
                              fsr2h 000FDA                                fsr1l 000FE1  
                              fsr2l 000FD9                                btemp 003D  
                  __end_of_ADC_Read 018A                                start 0060  
                  __end_of_ADC_init 01C2                        ___param_bank 000000  
                  __end_of_INT1_ISR 01F0                    __end_of_INT2_ISR 01EC  
                             ?_main 002E                               _T1CON 000FCD  
                             _T3CON 000FB1                               _LATC2 007C5A  
                             _LATD3 007C63                               _TMR1H 000FCF  
                             _TMR1L 000FCE                               _TMR3H 000FB3  
                             _TMR3L 000FB2                               _TRISA 000F92  
                             _TRISB 000F93                               _TRISD 000F95  
                             _TRISE 000F96                    __end_of_TMR1_ISR 01DA  
                  __end_of_TMR3_ISR 01CE                      ?_INT1_CallBack 002E  
           __end_of_PIN_MANAGER_IOC 01E4                               _light 0009  
            _UpdateJoinSuccessState 000000                      ?_INT2_CallBack 002E  
                             tablat 000FF5                               ltemp0 003D  
                             ltemp1 0041                               ltemp2 0045  
                             ttemp0 003D                               ttemp1 0040  
                             ttemp2 0043                               ttemp3 0046  
                             ttemp5 003E                               ttemp6 0041  
                             ttemp7 0045                               status 000FD8  
                             wtemp0 003D                               wtemp1 003F  
                             wtemp2 0041                               wtemp3 0043  
                             wtemp4 0045                               wtemp5 0047  
                             wtemp8 003E                     __initialization 00E2  
                      __end_of_main 00E2                   __end_of_IOCB4_ISR 01F6  
       ?_INTERRUPT_InterruptManager 002E                              ??_main 0039  
                     __activetblptr 000003               _TMR3_InterruptHandler 000D  
                            _ADCON0 000FC2                              _ADCON1 000FC1  
                            _ADCON2 000FC0                              _ADRESH 000FC4  
                            _ADRESL 000FC3      _LORAWAN_ReceiveWindow1Callback 000000  
                            _ANSELA 000F38                              _ANSELB 000F39  
                            _ANSELC 000F3A                              _ANSELD 000F3B  
                            _ANSELE 000F3C                              _T1GCON 000FCC  
                            _T3GCON 000FB4      _LORAWAN_ReceiveWindow2Callback 000000  
                            i2l2570 003C                              i2l2571 0056  
                            i2l2572 004C                              i2l2566 0020  
                            i2l2568 002C                              _OSCCON 000FD3  
                            _TRISC2 007CA2        _TMR1_DefaultInterruptHandler 000000  
                   ADC_Read@channel 0036                              clear_0 010A  
                            clear_1 011C                              clear_2 0128  
                            clear_3 0134                              clear_4 0140  
                            clear_5 014C                              isa$std 000001  
      _INT2_DefaultInterruptHandler 000000                        __pdataCOMRAM 0049  
                   ??_INT1_CallBack 002E                              lltemp0 003D  
                         ?_ADC_Read 0032                        __mediumconst FFA6  
                            tblptrh 000FF7                              tblptrl 000FF6  
                            tblptru 000FF8                           ?_ADC_init 002E  
                   ??_INT2_CallBack 002E                    ?_PIN_MANAGER_IOC 002E  
             __end_of_TMR1_CallBack 01F4                          __accesstop 0060  
           __end_of__initialization 0152                           ?_INT1_ISR 002E  
                         ?_INT2_ISR 002E                       ___rparam_used 000001  
             __end_of_TMR3_CallBack 01F2                      __pcstackCOMRAM 002E  
                        ___inthi_sp 0A9B                           ?_TMR1_ISR 002E  
                         ?_TMR3_ISR 002E       _IOCB4_DefaultInterruptHandler 000000  
            _AutomaticReplyCallback 000000                     ADC_SelChannel@c 0031  
                        ??_ADC_Read 0034                          ??_ADC_init 0030  
                        __pbssBANK0 0060                          __pbssBANK1 0100  
                        __pbssBANK2 0200                          __pbssBANK3 0300  
                        ??_INT1_ISR 002E                          ??_INT2_ISR 002E  
                        ??_TMR1_ISR 002E                          ??_TMR3_ISR 002E  
                           _OSCCON2 000FD2                             _OSCTUNE 000F9B  
                           _SSP2ADD 000F6E                             _SSP2BUF 000F6F  
         _AckRetransmissionCallback 000000                      _ticksAccounted 0001  
                           __Hparam 0000                             __Lparam 0000  
                           __pcinit 00E2                             __ramtop 1000  
                           __ptext0 0068                             __ptext1 01A0  
                           __ptext2 01B4                             __ptext3 0158  
                           __ptext4 018A                             __ptext6 01C2  
                           __ptext7 01F0                             __ptext8 01CE  
                           __ptext9 01F2                       _DIO0_ISR_Lora 000000  
                         _IOCB4_ISR 01F4                       _DIO1_ISR_Lora 000000  
                     _DIO2_ISR_Lora 000000                end_of_initialization 0152  
             _RADIO_WatchdogTimeout 000000           _LORAWAN_LinkCheckCallback 000000  
                        _ticksAdded 0005                       _DIO5_ISR_Lora 000000  
                           postdec2 000FDD                             postinc0 000FEE  
             _INT1_InterruptHandler 0019                           _PORTBbits 000F81  
                         _PORTCbits 000F82                           _PORTDbits 000F83  
                        ?_IOCB4_ISR 002E                           _TRISCbits 000F94  
                         _TRISDbits 000F95                       ?_IO_pins_init 002E  
      _INT0_DefaultInterruptHandler 000000                       __pidataCOMRAM 01E4  
                    _ADC_SelChannel 018A                 start_initialization 00E2  
                    ??_IO_pins_init 0030               __end_of_INT1_CallBack 01FA  
             __end_of_INT2_CallBack 01F8              __end_of_ADC_SelChannel 01A0  
                    ADC_Read@result 0037                  _RADIO_RxFSKTimeout 000000  
                       ??_IOCB4_ISR 002E                         __pbssBIGRAM 03E0  
                       __pbssCOMRAM 0001          __end_of_DefaultChannels433 FFD1  
        __end_of_DefaultChannels868 FFFB     _UnconfirmedTransmissionCallback 000000  
                         _aesBuffer 001E               _INT2_InterruptHandler 0017  
                         _macBuffer 03E0                           _dioStatus 001C  
                         __pintcode 0008                       __pmediumconst FFA6  
                   ?_ADC_SelChannel 002E        ??_INTERRUPT_InterruptManager 002E  
                 _DutyCycleCallback 000000                            _ADC_Read 0158  
                          _ADC_init 01B4                       _TMR1_CallBack 01F2  
                          _INT1_ISR 01EC                            _INT2_ISR 01E8  
                          _IOCBbits 000F62                           _reloadVal 0015  
                          _PIE1bits 000F9D                            _PIE2bits 000FA0  
                          _PIR1bits 000F9E                            _PIR2bits 000FA1  
                     _TMR3_CallBack 01F0                            _RCONbits 000FD0  
              __end_of_IO_pins_init 01B4                            _SSP2CON1 000F6C  
                          _TMR1_ISR 01CE                            _TMR3_ISR 01C2  
                          _SSP2STAT 000F6D                   ??_PIN_MANAGER_IOC 002E  
                        _ADCON0bits 000FC2                          _ADCON2bits 000FC0  
                          _Channels 0300                         _INTCON2bits 000FF1  
                       _INTCON3bits 000FF0                           copy_data0 00F6  
                    ?_TMR1_CallBack 002E                      ?_TMR3_CallBack 002E  
                          __Hrparam 0000                            __Lrparam 0000  
         _ticksToScheduledInterrupt 0049              _IOCB4_InterruptHandler 000B  
                        _ANSELCbits 000F3A                          _ANSELDbits 000F3B  
                       _radioBuffer 04EF               _TMR1_InterruptHandler 0011  
                   _allocatedTimers 001B                            __ptext10 01DA  
                          __ptext11 01F4                            __ptext12 01E8  
                          __ptext13 01F6                            __ptext14 01EC  
                          __ptext15 01F8                     _FskSyncWordBuff FFFB  
                     _timerOverflow 001D                            isa$xinst 000000  
                          _swTimers 0100  __end_of_INTERRUPT_InterruptManager 0060  
        _INTERRUPT_InterruptManager 0008                            main@time 003B  
      _TMR3_DefaultInterruptHandler 000000        _INT1_DefaultInterruptHandler 000000  
                        _INTCONbits 000FF2                     ??_TMR1_CallBack 002E  
                          intlevel2 0000                     ??_TMR3_CallBack 002E  
                _DefaultChannels433 FFA7                  _DefaultChannels868 FFD1  
                  ??_ADC_SelChannel 0030                        _IO_pins_init 01A0  
           __end_of_FskSyncWordBuff FFFE                     _PIN_MANAGER_IOC 01DA  
                _RadioConfiguration 0060  
